
E:/OS/x86os/start/test/build/source/kernel/kernel.elf:     file format elf32-i386
E:/OS/x86os/start/test/build/source/kernel/kernel.elf
architecture: i386, flags 0x00000112:
EXEC_P, HAS_SYMS, D_PAGED
start address 0x00010000

Program Header:
    LOAD off    0x00001000 vaddr 0x00010000 paddr 0x00010000 align 2**12
         filesz 0x00009e90 memsz 0x00009e90 flags r-x
    LOAD off    0x0000b000 vaddr 0x0001a000 paddr 0x0001a000 align 2**12
         filesz 0x00000178 memsz 0x000460c0 flags rw-
    LOAD off    0x0000c000 vaddr 0x80000000 paddr 0x000600c0 align 2**12
         filesz 0x00000387 memsz 0x00000387 flags rwx

Sections:
Idx Name          Size      VMA       LMA       File off  Algn
  0 .text         00008afd  00010000  00010000  00001000  2**0
                  CONTENTS, ALLOC, LOAD, READONLY, CODE
  1 .rodata       00001390  00018b00  00018b00  00009b00  2**5
                  CONTENTS, ALLOC, LOAD, READONLY, DATA
  2 .data         00000178  0001a000  0001a000  0000b000  2**5
                  CONTENTS, ALLOC, LOAD, DATA
  3 .bss          000450c0  0001b000  0001b000  0000b178  2**12
                  ALLOC
  4 .first_task   00000387  80000000  000600c0  0000c000  2**0
                  CONTENTS, ALLOC, LOAD, CODE
  5 .debug_line   00004882  00000000  00000000  0000c387  2**0
                  CONTENTS, READONLY, DEBUGGING
  6 .debug_info   00012ccf  00000000  00000000  00010c09  2**0
                  CONTENTS, READONLY, DEBUGGING
  7 .debug_abbrev 000032a1  00000000  00000000  000238d8  2**0
                  CONTENTS, READONLY, DEBUGGING
  8 .debug_aranges 00000340  00000000  00000000  00026b80  2**3
                  CONTENTS, READONLY, DEBUGGING
  9 .debug_ranges 000000d8  00000000  00000000  00026ec0  2**0
                  CONTENTS, READONLY, DEBUGGING
 10 .debug_str    00002be2  00000000  00000000  00026f98  2**0
                  CONTENTS, READONLY, DEBUGGING
 11 .comment      00000011  00000000  00000000  00029b7a  2**0
                  CONTENTS, READONLY
 12 .debug_frame  00002ba8  00000000  00000000  00029b8c  2**2
                  CONTENTS, READONLY, DEBUGGING
SYMBOL TABLE:
00010000 l    d  .text	00000000 .text
00018b00 l    d  .rodata	00000000 .rodata
0001a000 l    d  .data	00000000 .data
0001b000 l    d  .bss	00000000 .bss
80000000 l    d  .first_task	00000000 .first_task
00000000 l    d  .debug_line	00000000 .debug_line
00000000 l    d  .debug_info	00000000 .debug_info
00000000 l    d  .debug_abbrev	00000000 .debug_abbrev
00000000 l    d  .debug_aranges	00000000 .debug_aranges
00000000 l    d  .debug_ranges	00000000 .debug_ranges
00000000 l    d  .debug_str	00000000 .debug_str
00000000 l    d  .comment	00000000 .comment
00000000 l    d  .debug_frame	00000000 .debug_frame
00000000 l    df *ABS*	00000000 CMakeFiles/kernel.dir/init/start.S.obj
00010010 l       .text	00000000 gdt_reload
00000000 l    df *ABS*	00000000 memory.c
00010323 l     F .text	00000017 up2
0001033a l     F .text	0000000d down2
00010347 l     F .text	0000000c write_cr3
00010353 l     F .text	00000014 pde_index
00010367 l     F .text	00000027 pde_paddr
0001038e l     F .text	00000010 pte_index
0001039e l     F .text	00000027 pte_paddr
000103c5 l     F .text	0000000f get_pte_perm
000103d4 l     F .text	00000011 mmu_set_page_dir
0001b000 l     O .bss	00000028 paddr_alloc
0001c000 l     O .bss	00001000 kernel_page_dir
000103e5 l     F .text	00000013 current_page_dir
000103f8 l     F .text	00000058 addr_alloc_init
00010450 l     F .text	00000067 addr_alloc_page
000104b7 l     F .text	00000062 addr_free_page
00010519 l     F .text	00000066 show_mem_info
0001057f l     F .text	0000003c total_mem_size
00018c60 l     O .rodata	00000012 __func__.2383
0001a000 l     O .data	00000050 kernel_map.2395
00018c74 l     O .rodata	00000013 __func__.2423
00018c88 l     O .rodata	00000011 __func__.2501
00018c9c l     O .rodata	0000000c __func__.2508
00018ca8 l     O .rodata	00000009 __func__.2516
00000000 l    df *ABS*	00000000 syscall.c
00018cc0 l     O .rodata	00000194 sys_table
00000000 l    df *ABS*	00000000 task.c
00010fc5 l     F .text	0000000c write_cr3
00010fd1 l     F .text	00000007 hlt
00010fd8 l     F .text	0000000c write_tr
00010fe4 l     F .text	0000001b list_node_init
00010fff l     F .text	0000000b list_node_next
0001100a l     F .text	0000000b list_count
00011015 l     F .text	0000000a list_first
0001101f l     F .text	00000011 mmu_set_page_dir
0001d000 l     O .bss	000005c0 task_manager
0001d5c0 l     O .bss	00001000 idle_task_stack
0001e5c0 l     O .bss	00016400 task_table
000349c0 l     O .bss	00000014 task_table_mutex
00011030 l     F .text	000001cd tss_init
00019004 l     O .rodata	0000000a __func__.3104
00019010 l     O .rodata	00000010 __func__.3130
00011520 l     F .text	0000000a idle_task_entry
0001166a l     F .text	00000045 task_next_run
0001194c l     F .text	00000069 alloc_task
000119b5 l     F .text	00000030 free_task
00011a49 l     F .text	00000062 copy_opened_files
00011c47 l     F .text	00000129 load_phdr
00019020 l     O .rodata	0000000a __func__.3242
00011d70 l     F .text	00000213 load_elf_file
00011f83 l     F .text	00000130 copy_args
0001902c l     O .rodata	0000000a __func__.3277
00000000 l    df *ABS*	00000000 cpu.c
000124ee l     F .text	00000028 lgdt
00012516 l     F .text	0000001a far_jump
000349e0 l     O .bss	00000800 gdt_table
000351e0 l     O .bss	00000014 mutex
00000000 l    df *ABS*	00000000 irq.c
00012768 l     F .text	0000001d inb
00012785 l     F .text	0000001f outb
000127a4 l     F .text	00000007 cli
000127ab l     F .text	00000007 sti
000127b2 l     F .text	00000011 read_cr2
000127c3 l     F .text	00000028 lidt
000127eb l     F .text	00000007 hlt
000127f2 l     F .text	00000010 read_eflags
00012802 l     F .text	0000000b write_eflags
00035200 l     O .bss	00000400 idt_table
0001280d l     F .text	000000ff dump_core_regs
0001290c l     F .text	00000071 do_default_handler
00012d44 l     F .text	00000093 init_pic
00000000 l    df *ABS*	00000000 console.c
0001313b l     F .text	0000001d inb
00013158 l     F .text	0000001f outb
00035600 l     O .bss	00000340 console_buf
00013177 l     F .text	00000074 read_cursor_pos
000131eb l     F .text	000000c1 update_cursor_pos
0001342b l     F .text	00000091 erase_rows
000134bc l     F .text	00000088 scroll_up
00013544 l     F .text	00000010 move_to_col0
00013554 l     F .text	00000038 move_next_line
0001358c l     F .text	00000076 move_forward
00013602 l     F .text	00000094 show_char
00013696 l     F .text	00000078 move_backword
0001370e l     F .text	00000085 clear_display
00013793 l     F .text	00000073 move_next_tab
00013929 l     F .text	0000003a erase_backword
00013963 l     F .text	000000b8 write_normal
00013a1b l     F .text	00000029 clear_esc_param
00013a44 l     F .text	00000075 write_esc
00013ab9 l     F .text	00000099 set_font_style
000195e0 l     O .rodata	00000020 color_table.2399
00013b52 l     F .text	00000037 move_left
00013b89 l     F .text	00000049 move_right
00013bd2 l     F .text	00000033 move_cursor
00013c05 l     F .text	00000051 erase_in_display
00013c56 l     F .text	000000f7 write_esc_square
00000000 l    df *ABS*	00000000 dev.c
0001a050 l     O .data	00000008 dev_desc_tbl
00035940 l     O .bss	00000a00 dev_tbl
00013e4a l     F .text	0000003e is_devid_bad
00000000 l    df *ABS*	00000000 disk.c
0001413b l     F .text	0000001d inb
00014158 l     F .text	0000001f inw
00014177 l     F .text	0000001f outb
00014196 l     F .text	00000021 outw
00036340 l     O .bss	00000250 disk_buf
00036590 l     O .bss	00000014 mutex
000365a4 l     O .bss	00000010 op_sem
000365b4 l     O .bss	00000004 task_on_op
000141b7 l     F .text	00000130 ata_send_cmd
000142e7 l     F .text	00000050 ata_read_data
00014337 l     F .text	00000050 ata_write_data
00014387 l     F .text	0000004b ata_wait_data
000143d2 l     F .text	000000fe print_disk_info
000144d0 l     F .text	00000119 detect_part_info
000145e9 l     F .text	00000127 identify_disk
00000000 l    df *ABS*	00000000 kbd.c
00014bc5 l     F .text	0000001d inb
00014be2 l     F .text	0000001f outb
000365b8 l     O .bss	00000004 kbd_state
000197c0 l     O .rodata	00000200 map_table
00014c01 l     F .text	00000015 get_key
00014c16 l     F .text	0000001a is_make_code
00014cda l     F .text	00000045 update_led_status
00014d1f l     F .text	0000003c do_fx_key
00014d5b l     F .text	000001d0 do_normal_key
00014f2b l     F .text	0000008a do_e0_key
000365bc l     O .bss	00000004 recv_state.2129
000365c0 l     O .bss	00000004 inited.2139
00000000 l    df *ABS*	00000000 time.c
000150b7 l     F .text	0000001f outb
000365c4 l     O .bss	00000004 sys_tick
000150fe l     F .text	00000060 init_pit
00000000 l    df *ABS*	00000000 tty.c
000365e0 l     O .bss	000022a0 tty_devs
00038880 l     O .bss	00000004 curr_tty
000152b6 l     F .text	0000004f get_tty
00000000 l    df *ABS*	00000000 devfs.c
0001a0e0 l     O .data	0000000c devfs_type_list
00000000 l    df *ABS*	00000000 fatfs.c
0001593d l     F .text	00000017 up2
00015954 l     F .text	00000059 bread_sector
000159ad l     F .text	0000003e bwrite_secotr
00015d88 l     F .text	00000087 to_sfn
00015fab l     F .text	00000080 read_dir_entry
0001602b l     F .text	000000aa write_dir_entry
000160d5 l     F .text	00000179 expand_file
0001624e l     F .text	000000c2 move_file_pos
0001658b l     F .text	00000065 read_from_diritem
00000000 l    df *ABS*	00000000 file.c
000388a0 l     O .bss	00024000 file_table
0005c8a0 l     O .bss	00000014 file_alloc_mutex
00000000 l    df *ABS*	00000000 fs.c
00016fe6 l     F .text	0000000b list_node_next
00016ff1 l     F .text	0000000a list_first
0005c8c0 l     O .bss	0000000c mounted_list
0005c8cc l     O .bss	0000000c free_list
0005c8e0 l     O .bss	000017c0 fs_tbl
0005e0a0 l     O .bss	00000004 root_fs
00016ffb l     F .text	0000001d is_fd_bad
00017018 l     F .text	00000026 get_fs_op
0001703e l     F .text	000001c7 mount
00017205 l     F .text	00000060 mount_list_init
00019d50 l     O .rodata	00000008 __func__.3078
000173f8 l     F .text	0000002b fs_protect
00017423 l     F .text	0000002b fs_unprotect
00019d58 l     O .rodata	0000000a __func__.3169
00000000 l    df *ABS*	00000000 init.c
0005e0a4 l     O .bss	00000004 init_boot_info
00019e04 l     O .rodata	00000013 __func__.3085
00000000 l    df *ABS*	00000000 mutex.c
00017d30 l     F .text	0000000b list_count
00000000 l    df *ABS*	00000000 sem.c
00017ebf l     F .text	0000000b list_count
00000000 l    df *ABS*	00000000 bitmap.c
00000000 l    df *ABS*	00000000 klib.c
00018251 l     F .text	00000007 hlt
0001a174 l     O .data	00000004 num2ch.1951
00000000 l    df *ABS*	00000000 list.c
00018809 l     F .text	00000013 list_is_empty
00000000 l    df *ABS*	00000000 log.c
0005e0a8 l     O .bss	00000014 mutex
0005e0bc l     O .bss	00000004 log_dev_id
00000000 l    df *ABS*	00000000 first_task.c
00000000 l    df *ABS*	00000000 lib_syscall.c
800000cd l     F .first_task	0000004c sys_call
00015f67 g     F .text	00000044 diritem_get_type
00018145 g     F .text	0000003e bitmap_get_bit
00018437 g     F .text	0000004f kernel_memcpy
00017910 g     F .text	000000fc sys_close
0001170d g     F .text	0000000a task_current
00017350 g     F .text	00000050 path_begin_with
800001d1 g     F .first_task	0000001b yield
00013107 g     F .text	0000000b irq_enable_global
000188a0 g     F .text	00000064 list_insert_last
00011717 g     F .text	00000032 task_file
000102a5 g       .text	00000000 exception_handler_kbd
00010e0a g     F .text	0000010c sys_sbrk
000117c3 g     F .text	00000061 sys_yield
000119e5 g     F .text	00000064 sys_msleep
00012ab1 g     F .text	0000001c do_handler_segment_not_present
0001160b g     F .text	00000034 task_set_ready
00015c5b g     F .text	0000012d cluster_alloc_free
00018183 g     F .text	0000001b bitmap_is_set
00018486 g     F .text	00000041 kernel_memset
00014020 g     F .text	0000004c dev_write
0001787b g     F .text	00000095 sys_lseek
00015077 g     F .text	00000040 kbd_init
00015ad2 g     F .text	0000012f cluster_set_next
00010267 g       .text	00000000 exception_handler_virtual_exception
00014b87 g     F .text	00000006 disk_close
00010f30 g     F .text	00000095 do_handler_syscall
00018258 g     F .text	0000002d strings_count
0001274a g     F .text	0000001e cpu_init
00018a01 g     F .text	0000002f log_init
00016cc7 g     F .text	000000f4 fatfs_readdir
00011aab g     F .text	0000019c sys_fork
00017cd3 g     F .text	0000005d init_main
0001020c g       .text	00000000 exception_handler_alignment_check
00014b7d g     F .text	0000000a disk_control
000125fd g     F .text	00000039 gdt_free_sel
00010f16 g     F .text	0000001a sys_print_msg
0001a140 g     O .data	00000034 fatfs_op
000182cb g     F .text	00000047 kernel_strcpy
0001a000 g       .data	00000000 s_data
800001a4 g     F .first_task	0000002d execve
80000147 g     F .first_task	0000001b getpid
00012fea g     F .text	0000008b irq_enable
00010028 g       .text	00000000 exception_handler_unknown
00015ed4 g     F .text	00000093 diritem_get_name
00015e0f g     F .text	00000037 diritem_name_match
000100a4 g       .text	00000000 exception_handler_breakpoint
00012a09 g     F .text	0000001c do_handler_overflow
00012cd4 g     F .text	0000001c do_handler_alignment_check
0001066b g     F .text	0000008c memory_create_map
000176f2 g     F .text	000000c5 sys_read
000173a0 g     F .text	00000058 path_next_child
00014c91 g     F .text	00000035 kbd_wait_recv_ready
00016923 g     F .text	0000021e fatfs_write
0001337c g     F .text	000000af console_select
000101b3 g       .text	00000000 exception_handler_general_protection
00012ae9 g     F .text	000000d8 do_handler_general_protection
00013824 g     F .text	0000001e restore_cursor
00017fdf g     F .text	00000029 sem_count
80000010 g     F .first_task	000000bd first_task_main
00012999 g     F .text	0000001c do_handler_divider
00018071 g     F .text	000000d4 bitmap_set_bit
00012a79 g     F .text	0000001c do_handler_double_fault
00016dbb g     F .text	0000000a fatfs_closedir
00012bc1 g     F .text	000000f7 do_handler_page_fault
00016310 g     F .text	0000023f fatfs_mount
80000324 g     F .first_task	00000021 isatty
0001677e g     F .text	000001a5 fatfs_read
0001013f g       .text	00000000 exception_handler_double_fault
00012dd7 g     F .text	0000002b pic_send_eoi
00011516 g     F .text	0000000a task_first_task
00010000 g       .text	00000000 s_text
000107b2 g     F .text	00000085 memory_create_uvm
00017eed g     F .text	0000006e sem_wait
00010c4d g     F .text	00000025 memory_alloc_page_for
000150d6 g     F .text	00000028 do_handler_timer
00010196 g       .text	00000000 exception_handler_stack_segment_fault
80000000 g       .first_task	00000000 first_task_entry
00017a57 g     F .text	00000093 sys_fstat
00013fd4 g     F .text	0000004c dev_read
00016bcb g     F .text	000000df fatfs_seek
00016b41 g     F .text	0000008a fatfs_close
00012d28 g     F .text	0000001c do_handler_virtual_exception
00015913 g     F .text	0000000a devfs_stat
000100c3 g       .text	00000000 exception_handler_overflow
000102e3 g       .text	00000000 simple_switch
000102c4 g       .text	00000000 exception_handler_ide_primary
0001654f g     F .text	0000003c fatfs_unmount
800002d0 g     F .first_task	0000002d lseek
0005e0c0 g     O .bss	00002000 stack
00014710 g     F .text	000000f8 disk_init
00017265 g     F .text	00000090 fs_init
00016f7e g     F .text	00000038 file_inc_ref
00010c8c g     F .text	00000099 memory_free_page
000600c0 g       *ABS*	00000000 s_first_task
0001179c g     F .text	00000027 task_remove_fd
0001560c g     F .text	000000ba tty_control
00013842 g     F .text	000000e7 console_init
000154eb g     F .text	00000121 tty_read
00011376 g     F .text	0000008f task_uninit
00010b64 g     F .text	000000e9 memory_alloc_for_page_dir
0001591d g     F .text	00000020 devfs_ioctl
000151ad g     F .text	0000007f tty_fifo_get
000100e2 g       .text	00000000 exception_handler_bound_range
000156cc g     F .text	0000006d tty_in
00015a14 g     F .text	000000be cluster_get_next
00017f5b g     F .text	00000084 sem_notify
00010ae1 g     F .text	00000083 memory_copy_uvm_data
0001406c g     F .text	0000004c dev_control
00014fb5 g     F .text	000000c2 do_handler_kbd
00012a41 g     F .text	0000001c do_handler_invalid_opcode
0001015c g       .text	00000000 exception_handler_invalid_tss
00017b3d g     F .text	00000053 sys_readdir
00012cb8 g     F .text	0000001c do_handler_fpu_error
00011427 g     F .text	000000ef task_first_init
00012cf0 g     F .text	0000001c do_handler_machine_check
80000282 g     F .first_task	0000002d write
0001744e g     F .text	00000182 sys_open
000129b5 g     F .text	0000001c do_handler_Debug
800002fd g     F .first_task	00000027 fstat
00017a0c g     F .text	0000004b sys_isatty
00018841 g     F .text	0000005f list_insert_first
00013e88 g     F .text	0000014c dev_open
000172f5 g     F .text	0000005b path_to_num
000116eb g     F .text	00000022 task_set_wakeup
000129d1 g     F .text	0000001c do_handler_NMI
00010047 g       .text	00000000 exception_handler_divider
00015176 g     F .text	00000037 tty_fifo_init
0001a060 g     O .data	00000038 dev_disk_desc
00018312 g     F .text	00000070 kernel_strncpy
000130fc g     F .text	0000000b irq_disable_global
000177b7 g     F .text	000000c4 sys_write
800001ec g     F .first_task	00000021 wait
00060447 g       *ABS*	00000000 mem_free_start
00014c65 g     F .text	0000002c kbd_write
00017c30 g     F .text	0000003d kernel_init
00017eca g     F .text	00000023 sem_init
00010000 g       .text	00000000 _start
00018688 g     F .text	0000014b kernel_vsprintf
00018285 g     F .text	00000046 get_file_name
00010120 g       .text	00000000 exception_handler_device_unavailable
00010101 g       .text	00000000 exception_handler_invalid_opcode
000140b8 g     F .text	00000083 dev_close
00013806 g     F .text	0000001e save_cursor
000600c0 g       .bss	00000000 e_data
80000255 g     F .first_task	0000002d read
00017d69 g     F .text	00000097 mutex_lock
00017b90 g     F .text	00000050 sys_closedir
00016dc5 g     F .text	000000ec fatfs_unlink
00011749 g     F .text	00000053 task_alloc_fd
00015909 g     F .text	0000000a devfs_seek
00010229 g       .text	00000000 exception_handler_machine_check
000153fe g     F .text	000000ed tty_write
00012a95 g     F .text	0000001c do_handler_invalid_tss
00000000 g       *ABS*	00000000 kernel_base
0001522c g     F .text	0000008a tty_fifo_put
00060447 g       *ABS*	00000000 e_first_task
000116af g     F .text	0000003c task_set_sleep
000175d0 g     F .text	0000009e sys_dup
000187d3 g     F .text	00000036 panic
00010286 g       .text	00000000 exception_handler_timer
00012fb0 g     F .text	0000003a irq_install
000126af g     F .text	00000088 init_gdt
00015762 g     F .text	00000017 devfs_mount
00015305 g     F .text	000000f9 tty_open
80000189 g     F .first_task	0000001b fork
00013112 g     F .text	00000018 irq_enter_protection
00017d3b g     F .text	0000002e mutex_init
00013075 g     F .text	00000087 irq_disable
80000345 g     F .first_task	00000021 sbrk
0001a100 g     O .data	00000034 devfs_op
0001577f g     F .text	00000127 devfs_open
00010248 g       .text	00000000 exception_handler_smd_exception
0001766e g     F .text	00000084 sys_ioctl
00010837 g     F .text	0000010f memory_destroy_uvm
00018008 g     F .text	00000016 bitmap_byte_count
00012a5d g     F .text	0000001c do_handler_device_unavailable
00017be0 g     F .text	00000050 sys_unlink
000159eb g     F .text	00000029 cluster_is_valid
00016cb4 g     F .text	00000013 fatfs_opendir
00011824 g     F .text	0000003c task_dispatch
00010946 g     F .text	00000155 memory_copy_uvm
000156c6 g     F .text	00000006 tty_close
000158ca g     F .text	00000024 devfs_write
00017c6d g     F .text	00000066 move_to_first_task
00012737 g     F .text	00000013 switch_to_tss
000158ee g     F .text	0000001b devfs_close
00013d4d g     F .text	000000f7 console_write
00014c30 g     F .text	00000035 kbd_wait_send_ready
80000366 g     F .first_task	00000021 dup
000184c7 g     F .text	0000005e kernel_memcmp
000106f7 g     F .text	000000bb create_kernel_table
0001881c g     F .text	00000025 list_init
00012d0c g     F .text	0000001c do_handler_smd_exception
000101d0 g       .text	00000000 exception_handler_page_fault
0001163f g     F .text	0000002b task_set_block
0001297d g     F .text	0000001c do_handler_unknown
00010c72 g     F .text	0000001a memory_alloc_page
000101ed g       .text	00000000 exception_handler_fpu_error
00011405 g     F .text	00000022 task_switch_from_to
00012e02 g     F .text	000001ae irq_init
00017e00 g     F .text	000000bf mutex_unlock
00016fb6 g     F .text	00000030 file_table_init
0001312a g     F .text	00000011 irq_leave_protection
00016f3c g     F .text	00000042 file_free
00014cc6 g     F .text	00000014 kbd_read
00015e46 g     F .text	0000008e diritem_init
80000162 g     F .first_task	00000027 print_msg
00018382 g     F .text	0000003b kernel_strlen
00012530 g     F .text	00000086 segment_desc_set
00012a25 g     F .text	0000001c do_handler_bound_range
000102f8 g       .text	00000000 exception_handler_syscall
00014808 g     F .text	000000f5 disk_open
000165f0 g     F .text	0000018e fatfs_open
00018904 g     F .text	00000078 list_remove_first
00019e90 g       .rodata	00000000 e_text
000183bd g     F .text	0000007a kernel_strncmp
00017aea g     F .text	00000053 sys_opendir
0001801e g     F .text	00000053 bitmap_init
00010179 g       .text	00000000 exception_handler_segment_not_present
000132ac g     F .text	000000d0 console_set_cursor
00010085 g       .text	00000000 exception_handler_NMI
00016caa g     F .text	0000000a fatfs_stat
0001819e g     F .text	000000b3 bitmap_alloc_nbits
00016eb1 g     F .text	0000008b file_alloc
0001152a g     F .text	000000e1 task_manager_init
00011349 g     F .text	0000002d task_start
00010066 g       .text	00000000 exception_handler_Debug
00011860 g     F .text	000000ec task_time_tick
00010d25 g     F .text	000000e5 memory_init
000120b3 g     F .text	000001bd sys_execve
00014a3d g     F .text	00000140 disk_write
00012286 g     F .text	00000115 sys_wait
0001239b g     F .text	00000153 sys_exit
00015739 g     F .text	00000029 tty_select
00013e44 g     F .text	00000006 console_close
00010a9b g     F .text	00000046 memory_get_paddr
00012acd g     F .text	0000001c do_handler_stack_segment_fault
000129ed g     F .text	0000001c do_handler_breakpoint
00015779 g     F .text	00000006 devfs_unmount
8000020d g     F .first_task	00000021 _exit
000158a6 g     F .text	00000024 devfs_read
00018a30 g     F .text	000000cd log_printf
000111fd g     F .text	0000014c task_init
000148fd g     F .text	00000140 disk_read
8000022e g     F .first_task	00000027 open
00015c01 g     F .text	0000005a cluster_free_chain
00018664 g     F .text	00000024 kernel_sprintf
00012270 g     F .text	00000016 sys_getpid
00012636 g     F .text	00000079 gdt_alloc_desc
00018525 g     F .text	0000013f kernel_itoa
0001897c g     F .text	00000085 list_remove
000125b6 g     F .text	00000047 gate_desc_set
80000119 g     F .first_task	0000002e msleep
800002af g     F .first_task	00000021 close
00014b8d g     F .text	00000038 do_handler_ide_primary
000105bb g     F .text	000000b0 find_pte
0001515e g     F .text	00000018 time_init
0001a0a0 g     O .data	00000038 dev_tty_desc



Disassembly of section .text:

00010000 <_start>:
    # 第二种方法
    # mov 4(%esp), %eax
    # push %eax

    # 第三种方法
    push 4(%esp)
   10000:	ff 74 24 04          	pushl  0x4(%esp)

    # kernel_init(boot_info)
    call kernel_init
   10004:	e8 27 7c 00 00       	call   17c30 <kernel_init>

	// 重新加载GDT
	jmp $KERNEL_SELECTOR_CS, $gdt_reload
   10009:	ea 10 00 01 00 08 00 	ljmp   $0x8,$0x10010

00010010 <gdt_reload>:

gdt_reload:
	mov $KERNEL_SELECTOR_DS, %ax		// 16为数据段选择子
   10010:	66 b8 10 00          	mov    $0x10,%ax
	mov %ax, %ds
   10014:	8e d8                	mov    %eax,%ds
    mov %ax, %ss
   10016:	8e d0                	mov    %eax,%ss
    mov %ax, %es
   10018:	8e c0                	mov    %eax,%es
    mov %ax, %fs
   1001a:	8e e0                	mov    %eax,%fs
    mov %ax, %gs
   1001c:	8e e8                	mov    %eax,%gs

	// 栈设置
	mov $(stack + KERNEL_STACK_SIZE), %esp
   1001e:	bc c0 00 06 00       	mov    $0x600c0,%esp

	// 栈和段等沿用之前的设置
	jmp init_main
   10023:	e9 ab 7c 00 00       	jmp    17cd3 <init_main>

00010028 <exception_handler_unknown>:
		// 跳过压入的异常号和错误码
		add $(2*4), %esp
		iret
.endm

exception_handler unknown, -1, 0
   10028:	6a 00                	push   $0x0
   1002a:	6a ff                	push   $0xffffffff
   1002c:	60                   	pusha  
   1002d:	1e                   	push   %ds
   1002e:	06                   	push   %es
   1002f:	0f a0                	push   %fs
   10031:	0f a8                	push   %gs
   10033:	54                   	push   %esp
   10034:	e8 44 29 00 00       	call   1297d <do_handler_unknown>
   10039:	83 c4 04             	add    $0x4,%esp
   1003c:	0f a9                	pop    %gs
   1003e:	0f a1                	pop    %fs
   10040:	07                   	pop    %es
   10041:	1f                   	pop    %ds
   10042:	61                   	popa   
   10043:	83 c4 08             	add    $0x8,%esp
   10046:	cf                   	iret   

00010047 <exception_handler_divider>:
exception_handler divider, 0, 0
   10047:	6a 00                	push   $0x0
   10049:	6a 00                	push   $0x0
   1004b:	60                   	pusha  
   1004c:	1e                   	push   %ds
   1004d:	06                   	push   %es
   1004e:	0f a0                	push   %fs
   10050:	0f a8                	push   %gs
   10052:	54                   	push   %esp
   10053:	e8 41 29 00 00       	call   12999 <do_handler_divider>
   10058:	83 c4 04             	add    $0x4,%esp
   1005b:	0f a9                	pop    %gs
   1005d:	0f a1                	pop    %fs
   1005f:	07                   	pop    %es
   10060:	1f                   	pop    %ds
   10061:	61                   	popa   
   10062:	83 c4 08             	add    $0x8,%esp
   10065:	cf                   	iret   

00010066 <exception_handler_Debug>:
exception_handler Debug, 1, 0
   10066:	6a 00                	push   $0x0
   10068:	6a 01                	push   $0x1
   1006a:	60                   	pusha  
   1006b:	1e                   	push   %ds
   1006c:	06                   	push   %es
   1006d:	0f a0                	push   %fs
   1006f:	0f a8                	push   %gs
   10071:	54                   	push   %esp
   10072:	e8 3e 29 00 00       	call   129b5 <do_handler_Debug>
   10077:	83 c4 04             	add    $0x4,%esp
   1007a:	0f a9                	pop    %gs
   1007c:	0f a1                	pop    %fs
   1007e:	07                   	pop    %es
   1007f:	1f                   	pop    %ds
   10080:	61                   	popa   
   10081:	83 c4 08             	add    $0x8,%esp
   10084:	cf                   	iret   

00010085 <exception_handler_NMI>:
exception_handler NMI, 2, 0
   10085:	6a 00                	push   $0x0
   10087:	6a 02                	push   $0x2
   10089:	60                   	pusha  
   1008a:	1e                   	push   %ds
   1008b:	06                   	push   %es
   1008c:	0f a0                	push   %fs
   1008e:	0f a8                	push   %gs
   10090:	54                   	push   %esp
   10091:	e8 3b 29 00 00       	call   129d1 <do_handler_NMI>
   10096:	83 c4 04             	add    $0x4,%esp
   10099:	0f a9                	pop    %gs
   1009b:	0f a1                	pop    %fs
   1009d:	07                   	pop    %es
   1009e:	1f                   	pop    %ds
   1009f:	61                   	popa   
   100a0:	83 c4 08             	add    $0x8,%esp
   100a3:	cf                   	iret   

000100a4 <exception_handler_breakpoint>:
exception_handler breakpoint, 3, 0
   100a4:	6a 00                	push   $0x0
   100a6:	6a 03                	push   $0x3
   100a8:	60                   	pusha  
   100a9:	1e                   	push   %ds
   100aa:	06                   	push   %es
   100ab:	0f a0                	push   %fs
   100ad:	0f a8                	push   %gs
   100af:	54                   	push   %esp
   100b0:	e8 38 29 00 00       	call   129ed <do_handler_breakpoint>
   100b5:	83 c4 04             	add    $0x4,%esp
   100b8:	0f a9                	pop    %gs
   100ba:	0f a1                	pop    %fs
   100bc:	07                   	pop    %es
   100bd:	1f                   	pop    %ds
   100be:	61                   	popa   
   100bf:	83 c4 08             	add    $0x8,%esp
   100c2:	cf                   	iret   

000100c3 <exception_handler_overflow>:
exception_handler overflow, 4, 0
   100c3:	6a 00                	push   $0x0
   100c5:	6a 04                	push   $0x4
   100c7:	60                   	pusha  
   100c8:	1e                   	push   %ds
   100c9:	06                   	push   %es
   100ca:	0f a0                	push   %fs
   100cc:	0f a8                	push   %gs
   100ce:	54                   	push   %esp
   100cf:	e8 35 29 00 00       	call   12a09 <do_handler_overflow>
   100d4:	83 c4 04             	add    $0x4,%esp
   100d7:	0f a9                	pop    %gs
   100d9:	0f a1                	pop    %fs
   100db:	07                   	pop    %es
   100dc:	1f                   	pop    %ds
   100dd:	61                   	popa   
   100de:	83 c4 08             	add    $0x8,%esp
   100e1:	cf                   	iret   

000100e2 <exception_handler_bound_range>:
exception_handler bound_range, 5, 0
   100e2:	6a 00                	push   $0x0
   100e4:	6a 05                	push   $0x5
   100e6:	60                   	pusha  
   100e7:	1e                   	push   %ds
   100e8:	06                   	push   %es
   100e9:	0f a0                	push   %fs
   100eb:	0f a8                	push   %gs
   100ed:	54                   	push   %esp
   100ee:	e8 32 29 00 00       	call   12a25 <do_handler_bound_range>
   100f3:	83 c4 04             	add    $0x4,%esp
   100f6:	0f a9                	pop    %gs
   100f8:	0f a1                	pop    %fs
   100fa:	07                   	pop    %es
   100fb:	1f                   	pop    %ds
   100fc:	61                   	popa   
   100fd:	83 c4 08             	add    $0x8,%esp
   10100:	cf                   	iret   

00010101 <exception_handler_invalid_opcode>:
exception_handler invalid_opcode, 6, 0
   10101:	6a 00                	push   $0x0
   10103:	6a 06                	push   $0x6
   10105:	60                   	pusha  
   10106:	1e                   	push   %ds
   10107:	06                   	push   %es
   10108:	0f a0                	push   %fs
   1010a:	0f a8                	push   %gs
   1010c:	54                   	push   %esp
   1010d:	e8 2f 29 00 00       	call   12a41 <do_handler_invalid_opcode>
   10112:	83 c4 04             	add    $0x4,%esp
   10115:	0f a9                	pop    %gs
   10117:	0f a1                	pop    %fs
   10119:	07                   	pop    %es
   1011a:	1f                   	pop    %ds
   1011b:	61                   	popa   
   1011c:	83 c4 08             	add    $0x8,%esp
   1011f:	cf                   	iret   

00010120 <exception_handler_device_unavailable>:
exception_handler device_unavailable, 7, 0
   10120:	6a 00                	push   $0x0
   10122:	6a 07                	push   $0x7
   10124:	60                   	pusha  
   10125:	1e                   	push   %ds
   10126:	06                   	push   %es
   10127:	0f a0                	push   %fs
   10129:	0f a8                	push   %gs
   1012b:	54                   	push   %esp
   1012c:	e8 2c 29 00 00       	call   12a5d <do_handler_device_unavailable>
   10131:	83 c4 04             	add    $0x4,%esp
   10134:	0f a9                	pop    %gs
   10136:	0f a1                	pop    %fs
   10138:	07                   	pop    %es
   10139:	1f                   	pop    %ds
   1013a:	61                   	popa   
   1013b:	83 c4 08             	add    $0x8,%esp
   1013e:	cf                   	iret   

0001013f <exception_handler_double_fault>:
exception_handler double_fault, 8, 1
   1013f:	6a 08                	push   $0x8
   10141:	60                   	pusha  
   10142:	1e                   	push   %ds
   10143:	06                   	push   %es
   10144:	0f a0                	push   %fs
   10146:	0f a8                	push   %gs
   10148:	54                   	push   %esp
   10149:	e8 2b 29 00 00       	call   12a79 <do_handler_double_fault>
   1014e:	83 c4 04             	add    $0x4,%esp
   10151:	0f a9                	pop    %gs
   10153:	0f a1                	pop    %fs
   10155:	07                   	pop    %es
   10156:	1f                   	pop    %ds
   10157:	61                   	popa   
   10158:	83 c4 08             	add    $0x8,%esp
   1015b:	cf                   	iret   

0001015c <exception_handler_invalid_tss>:
exception_handler invalid_tss, 10, 1
   1015c:	6a 0a                	push   $0xa
   1015e:	60                   	pusha  
   1015f:	1e                   	push   %ds
   10160:	06                   	push   %es
   10161:	0f a0                	push   %fs
   10163:	0f a8                	push   %gs
   10165:	54                   	push   %esp
   10166:	e8 2a 29 00 00       	call   12a95 <do_handler_invalid_tss>
   1016b:	83 c4 04             	add    $0x4,%esp
   1016e:	0f a9                	pop    %gs
   10170:	0f a1                	pop    %fs
   10172:	07                   	pop    %es
   10173:	1f                   	pop    %ds
   10174:	61                   	popa   
   10175:	83 c4 08             	add    $0x8,%esp
   10178:	cf                   	iret   

00010179 <exception_handler_segment_not_present>:
exception_handler segment_not_present, 11, 1
   10179:	6a 0b                	push   $0xb
   1017b:	60                   	pusha  
   1017c:	1e                   	push   %ds
   1017d:	06                   	push   %es
   1017e:	0f a0                	push   %fs
   10180:	0f a8                	push   %gs
   10182:	54                   	push   %esp
   10183:	e8 29 29 00 00       	call   12ab1 <do_handler_segment_not_present>
   10188:	83 c4 04             	add    $0x4,%esp
   1018b:	0f a9                	pop    %gs
   1018d:	0f a1                	pop    %fs
   1018f:	07                   	pop    %es
   10190:	1f                   	pop    %ds
   10191:	61                   	popa   
   10192:	83 c4 08             	add    $0x8,%esp
   10195:	cf                   	iret   

00010196 <exception_handler_stack_segment_fault>:
exception_handler stack_segment_fault, 12, 1
   10196:	6a 0c                	push   $0xc
   10198:	60                   	pusha  
   10199:	1e                   	push   %ds
   1019a:	06                   	push   %es
   1019b:	0f a0                	push   %fs
   1019d:	0f a8                	push   %gs
   1019f:	54                   	push   %esp
   101a0:	e8 28 29 00 00       	call   12acd <do_handler_stack_segment_fault>
   101a5:	83 c4 04             	add    $0x4,%esp
   101a8:	0f a9                	pop    %gs
   101aa:	0f a1                	pop    %fs
   101ac:	07                   	pop    %es
   101ad:	1f                   	pop    %ds
   101ae:	61                   	popa   
   101af:	83 c4 08             	add    $0x8,%esp
   101b2:	cf                   	iret   

000101b3 <exception_handler_general_protection>:
exception_handler general_protection, 13, 1
   101b3:	6a 0d                	push   $0xd
   101b5:	60                   	pusha  
   101b6:	1e                   	push   %ds
   101b7:	06                   	push   %es
   101b8:	0f a0                	push   %fs
   101ba:	0f a8                	push   %gs
   101bc:	54                   	push   %esp
   101bd:	e8 27 29 00 00       	call   12ae9 <do_handler_general_protection>
   101c2:	83 c4 04             	add    $0x4,%esp
   101c5:	0f a9                	pop    %gs
   101c7:	0f a1                	pop    %fs
   101c9:	07                   	pop    %es
   101ca:	1f                   	pop    %ds
   101cb:	61                   	popa   
   101cc:	83 c4 08             	add    $0x8,%esp
   101cf:	cf                   	iret   

000101d0 <exception_handler_page_fault>:
exception_handler page_fault, 14, 1
   101d0:	6a 0e                	push   $0xe
   101d2:	60                   	pusha  
   101d3:	1e                   	push   %ds
   101d4:	06                   	push   %es
   101d5:	0f a0                	push   %fs
   101d7:	0f a8                	push   %gs
   101d9:	54                   	push   %esp
   101da:	e8 e2 29 00 00       	call   12bc1 <do_handler_page_fault>
   101df:	83 c4 04             	add    $0x4,%esp
   101e2:	0f a9                	pop    %gs
   101e4:	0f a1                	pop    %fs
   101e6:	07                   	pop    %es
   101e7:	1f                   	pop    %ds
   101e8:	61                   	popa   
   101e9:	83 c4 08             	add    $0x8,%esp
   101ec:	cf                   	iret   

000101ed <exception_handler_fpu_error>:
exception_handler fpu_error, 16, 0
   101ed:	6a 00                	push   $0x0
   101ef:	6a 10                	push   $0x10
   101f1:	60                   	pusha  
   101f2:	1e                   	push   %ds
   101f3:	06                   	push   %es
   101f4:	0f a0                	push   %fs
   101f6:	0f a8                	push   %gs
   101f8:	54                   	push   %esp
   101f9:	e8 ba 2a 00 00       	call   12cb8 <do_handler_fpu_error>
   101fe:	83 c4 04             	add    $0x4,%esp
   10201:	0f a9                	pop    %gs
   10203:	0f a1                	pop    %fs
   10205:	07                   	pop    %es
   10206:	1f                   	pop    %ds
   10207:	61                   	popa   
   10208:	83 c4 08             	add    $0x8,%esp
   1020b:	cf                   	iret   

0001020c <exception_handler_alignment_check>:
exception_handler alignment_check, 17, 1
   1020c:	6a 11                	push   $0x11
   1020e:	60                   	pusha  
   1020f:	1e                   	push   %ds
   10210:	06                   	push   %es
   10211:	0f a0                	push   %fs
   10213:	0f a8                	push   %gs
   10215:	54                   	push   %esp
   10216:	e8 b9 2a 00 00       	call   12cd4 <do_handler_alignment_check>
   1021b:	83 c4 04             	add    $0x4,%esp
   1021e:	0f a9                	pop    %gs
   10220:	0f a1                	pop    %fs
   10222:	07                   	pop    %es
   10223:	1f                   	pop    %ds
   10224:	61                   	popa   
   10225:	83 c4 08             	add    $0x8,%esp
   10228:	cf                   	iret   

00010229 <exception_handler_machine_check>:
exception_handler machine_check, 18, 0
   10229:	6a 00                	push   $0x0
   1022b:	6a 12                	push   $0x12
   1022d:	60                   	pusha  
   1022e:	1e                   	push   %ds
   1022f:	06                   	push   %es
   10230:	0f a0                	push   %fs
   10232:	0f a8                	push   %gs
   10234:	54                   	push   %esp
   10235:	e8 b6 2a 00 00       	call   12cf0 <do_handler_machine_check>
   1023a:	83 c4 04             	add    $0x4,%esp
   1023d:	0f a9                	pop    %gs
   1023f:	0f a1                	pop    %fs
   10241:	07                   	pop    %es
   10242:	1f                   	pop    %ds
   10243:	61                   	popa   
   10244:	83 c4 08             	add    $0x8,%esp
   10247:	cf                   	iret   

00010248 <exception_handler_smd_exception>:
exception_handler smd_exception, 19, 0
   10248:	6a 00                	push   $0x0
   1024a:	6a 13                	push   $0x13
   1024c:	60                   	pusha  
   1024d:	1e                   	push   %ds
   1024e:	06                   	push   %es
   1024f:	0f a0                	push   %fs
   10251:	0f a8                	push   %gs
   10253:	54                   	push   %esp
   10254:	e8 b3 2a 00 00       	call   12d0c <do_handler_smd_exception>
   10259:	83 c4 04             	add    $0x4,%esp
   1025c:	0f a9                	pop    %gs
   1025e:	0f a1                	pop    %fs
   10260:	07                   	pop    %es
   10261:	1f                   	pop    %ds
   10262:	61                   	popa   
   10263:	83 c4 08             	add    $0x8,%esp
   10266:	cf                   	iret   

00010267 <exception_handler_virtual_exception>:
exception_handler virtual_exception, 20, 0
   10267:	6a 00                	push   $0x0
   10269:	6a 14                	push   $0x14
   1026b:	60                   	pusha  
   1026c:	1e                   	push   %ds
   1026d:	06                   	push   %es
   1026e:	0f a0                	push   %fs
   10270:	0f a8                	push   %gs
   10272:	54                   	push   %esp
   10273:	e8 b0 2a 00 00       	call   12d28 <do_handler_virtual_exception>
   10278:	83 c4 04             	add    $0x4,%esp
   1027b:	0f a9                	pop    %gs
   1027d:	0f a1                	pop    %fs
   1027f:	07                   	pop    %es
   10280:	1f                   	pop    %ds
   10281:	61                   	popa   
   10282:	83 c4 08             	add    $0x8,%esp
   10285:	cf                   	iret   

00010286 <exception_handler_timer>:

// 硬件中断
exception_handler timer, 0x20, 0
   10286:	6a 00                	push   $0x0
   10288:	6a 20                	push   $0x20
   1028a:	60                   	pusha  
   1028b:	1e                   	push   %ds
   1028c:	06                   	push   %es
   1028d:	0f a0                	push   %fs
   1028f:	0f a8                	push   %gs
   10291:	54                   	push   %esp
   10292:	e8 3f 4e 00 00       	call   150d6 <do_handler_timer>
   10297:	83 c4 04             	add    $0x4,%esp
   1029a:	0f a9                	pop    %gs
   1029c:	0f a1                	pop    %fs
   1029e:	07                   	pop    %es
   1029f:	1f                   	pop    %ds
   102a0:	61                   	popa   
   102a1:	83 c4 08             	add    $0x8,%esp
   102a4:	cf                   	iret   

000102a5 <exception_handler_kbd>:
exception_handler kbd, 0x21, 0
   102a5:	6a 00                	push   $0x0
   102a7:	6a 21                	push   $0x21
   102a9:	60                   	pusha  
   102aa:	1e                   	push   %ds
   102ab:	06                   	push   %es
   102ac:	0f a0                	push   %fs
   102ae:	0f a8                	push   %gs
   102b0:	54                   	push   %esp
   102b1:	e8 ff 4c 00 00       	call   14fb5 <do_handler_kbd>
   102b6:	83 c4 04             	add    $0x4,%esp
   102b9:	0f a9                	pop    %gs
   102bb:	0f a1                	pop    %fs
   102bd:	07                   	pop    %es
   102be:	1f                   	pop    %ds
   102bf:	61                   	popa   
   102c0:	83 c4 08             	add    $0x8,%esp
   102c3:	cf                   	iret   

000102c4 <exception_handler_ide_primary>:
exception_handler ide_primary, 0x2E, 0
   102c4:	6a 00                	push   $0x0
   102c6:	6a 2e                	push   $0x2e
   102c8:	60                   	pusha  
   102c9:	1e                   	push   %ds
   102ca:	06                   	push   %es
   102cb:	0f a0                	push   %fs
   102cd:	0f a8                	push   %gs
   102cf:	54                   	push   %esp
   102d0:	e8 b8 48 00 00       	call   14b8d <do_handler_ide_primary>
   102d5:	83 c4 04             	add    $0x4,%esp
   102d8:	0f a9                	pop    %gs
   102da:	0f a1                	pop    %fs
   102dc:	07                   	pop    %es
   102dd:	1f                   	pop    %ds
   102de:	61                   	popa   
   102df:	83 c4 08             	add    $0x8,%esp
   102e2:	cf                   	iret   

000102e3 <simple_switch>:
// esp不用保存，只需要让esp保存在调用之前的状态
// eflags ?
	.text
	.global simple_switch
simple_switch:
	movl 4(%esp), %eax   // 取from->stack
   102e3:	8b 44 24 04          	mov    0x4(%esp),%eax
	movl 8(%esp), %edx   // 取to->stack
   102e7:	8b 54 24 08          	mov    0x8(%esp),%edx

	// 保存前一任务的状态
	push %ebp
   102eb:	55                   	push   %ebp
	push %ebx
   102ec:	53                   	push   %ebx
	push %esi
   102ed:	56                   	push   %esi
	push %edi
   102ee:	57                   	push   %edi

	// 切换栈
	mov %esp, (%eax)    // from->stack = esp
   102ef:	89 20                	mov    %esp,(%eax)
  	mov %edx, %esp      // esp = to->stack
   102f1:	89 d4                	mov    %edx,%esp

	// 加载下一任务的栈
	pop %edi
   102f3:	5f                   	pop    %edi
	pop %esi
   102f4:	5e                   	pop    %esi
	pop %ebx
   102f5:	5b                   	pop    %ebx
	pop %ebp
   102f6:	5d                   	pop    %ebp
  	ret
   102f7:	c3                   	ret    

000102f8 <exception_handler_syscall>:

     .global exception_handler_syscall
    .extern do_handler_syscall
exception_handler_syscall:
	// 保存前一任务的状态
	pusha
   102f8:	60                   	pusha  
	push %ds
   102f9:	1e                   	push   %ds
	push %es
   102fa:	06                   	push   %es
	push %fs
   102fb:	0f a0                	push   %fs
	push %gs
   102fd:	0f a8                	push   %gs
	pushf
   102ff:	9c                   	pushf  

	// 使用内核段寄存器，避免使用应用层的
	mov $(KERNEL_SELECTOR_DS), %eax
   10300:	b8 10 00 00 00       	mov    $0x10,%eax
	mov %eax, %ds
   10305:	8e d8                	mov    %eax,%ds
	mov %eax, %es
   10307:	8e c0                	mov    %eax,%es
	mov %eax, %fs
   10309:	8e e0                	mov    %eax,%fs
	mov %eax, %gs
   1030b:	8e e8                	mov    %eax,%gs

    // 调用处理函数
    mov %esp, %eax
   1030d:	89 e0                	mov    %esp,%eax
    push %eax
   1030f:	50                   	push   %eax
	call do_handler_syscall
   10310:	e8 1b 0c 00 00       	call   10f30 <do_handler_syscall>
	add $4, %esp
   10315:	83 c4 04             	add    $0x4,%esp

    // 再切换回来
	popf
   10318:	9d                   	popf   
	pop %gs
   10319:	0f a9                	pop    %gs
	pop %fs
   1031b:	0f a1                	pop    %fs
	pop %es
   1031d:	07                   	pop    %es
	pop %ds
   1031e:	1f                   	pop    %ds
	popa
   1031f:	61                   	popa   
	
	// 5个参数，加上5*4，不加会导致返回时ss取不出来，最后返回出现问题
   10320:	ca 14 00             	lret   $0x14

00010323 <up2>:

#include <stdarg.h>
#include "comm/types.h"

// 向上对齐到页边界
static inline uint32_t up2 (uint32_t size, uint32_t bound) {
   10323:	55                   	push   %ebp
   10324:	89 e5                	mov    %esp,%ebp
    return (size + bound - 1) & ~(bound - 1);
   10326:	8b 55 08             	mov    0x8(%ebp),%edx
   10329:	8b 45 0c             	mov    0xc(%ebp),%eax
   1032c:	01 d0                	add    %edx,%eax
   1032e:	8d 50 ff             	lea    -0x1(%eax),%edx
   10331:	8b 45 0c             	mov    0xc(%ebp),%eax
   10334:	f7 d8                	neg    %eax
   10336:	21 d0                	and    %edx,%eax
}
   10338:	5d                   	pop    %ebp
   10339:	c3                   	ret    

0001033a <down2>:

// 向下对齐到界边界
static inline uint32_t down2 (uint32_t size, uint32_t bound) {
   1033a:	55                   	push   %ebp
   1033b:	89 e5                	mov    %esp,%ebp
    return size & ~(bound - 1);
   1033d:	8b 45 0c             	mov    0xc(%ebp),%eax
   10340:	f7 d8                	neg    %eax
   10342:	23 45 08             	and    0x8(%ebp),%eax
}
   10345:	5d                   	pop    %ebp
   10346:	c3                   	ret    

00010347 <write_cr3>:
	uint32_t cr2;
	__asm__ __volatile__("mov %%cr2, %[v]":[v]"=r"(cr2));
	return cr2;
}

static inline void write_cr3(uint32_t v) {
   10347:	55                   	push   %ebp
   10348:	89 e5                	mov    %esp,%ebp
    __asm__ __volatile__("mov %[v], %%cr3"::[v]"r"(v));
   1034a:	8b 45 08             	mov    0x8(%ebp),%eax
   1034d:	0f 22 d8             	mov    %eax,%cr3
}
   10350:	90                   	nop
   10351:	5d                   	pop    %ebp
   10352:	c3                   	ret    

00010353 <pde_index>:
#pragma pack()

/**
 * @brief 返回vaddr在页目录中的索引
 */
static inline uint32_t pde_index (uint32_t vaddr) {
   10353:	55                   	push   %ebp
   10354:	89 e5                	mov    %esp,%ebp
   10356:	83 ec 10             	sub    $0x10,%esp
    int index = (vaddr >> 22); // 只取高10位
   10359:	8b 45 08             	mov    0x8(%ebp),%eax
   1035c:	c1 e8 16             	shr    $0x16,%eax
   1035f:	89 45 fc             	mov    %eax,-0x4(%ebp)
    return index;
   10362:	8b 45 fc             	mov    -0x4(%ebp),%eax
}
   10365:	c9                   	leave  
   10366:	c3                   	ret    

00010367 <pde_paddr>:

/**
 * @brief 获取pde中地址
 */
static inline uint32_t pde_paddr (pde_t * pde) {
   10367:	55                   	push   %ebp
   10368:	89 e5                	mov    %esp,%ebp
    return pde->phy_pt_addr << 12;
   1036a:	8b 45 08             	mov    0x8(%ebp),%eax
   1036d:	0f b6 50 01          	movzbl 0x1(%eax),%edx
   10371:	c0 ea 04             	shr    $0x4,%dl
   10374:	0f b6 d2             	movzbl %dl,%edx
   10377:	0f b6 48 02          	movzbl 0x2(%eax),%ecx
   1037b:	c1 e1 04             	shl    $0x4,%ecx
   1037e:	09 ca                	or     %ecx,%edx
   10380:	0f b6 40 03          	movzbl 0x3(%eax),%eax
   10384:	c1 e0 0c             	shl    $0xc,%eax
   10387:	09 d0                	or     %edx,%eax
   10389:	c1 e0 0c             	shl    $0xc,%eax
}
   1038c:	5d                   	pop    %ebp
   1038d:	c3                   	ret    

0001038e <pte_index>:

/**
 * @brief 返回vaddr在页表中的索引
 */
static inline int pte_index (uint32_t vaddr) {
   1038e:	55                   	push   %ebp
   1038f:	89 e5                	mov    %esp,%ebp
    return (vaddr >> 12) & 0x3FF;   // 取中间10位
   10391:	8b 45 08             	mov    0x8(%ebp),%eax
   10394:	c1 e8 0c             	shr    $0xc,%eax
   10397:	25 ff 03 00 00       	and    $0x3ff,%eax
}
   1039c:	5d                   	pop    %ebp
   1039d:	c3                   	ret    

0001039e <pte_paddr>:

/**
 * @brief 获取pte中的物理地址
 */
static inline uint32_t pte_paddr (pte_t * pte) {
   1039e:	55                   	push   %ebp
   1039f:	89 e5                	mov    %esp,%ebp
    return pte->phy_page_addr << 12;
   103a1:	8b 45 08             	mov    0x8(%ebp),%eax
   103a4:	0f b6 50 01          	movzbl 0x1(%eax),%edx
   103a8:	c0 ea 04             	shr    $0x4,%dl
   103ab:	0f b6 d2             	movzbl %dl,%edx
   103ae:	0f b6 48 02          	movzbl 0x2(%eax),%ecx
   103b2:	c1 e1 04             	shl    $0x4,%ecx
   103b5:	09 ca                	or     %ecx,%edx
   103b7:	0f b6 40 03          	movzbl 0x3(%eax),%eax
   103bb:	c1 e0 0c             	shl    $0xc,%eax
   103be:	09 d0                	or     %edx,%eax
   103c0:	c1 e0 0c             	shl    $0xc,%eax
}
   103c3:	5d                   	pop    %ebp
   103c4:	c3                   	ret    

000103c5 <get_pte_perm>:

/**
 * @brief 获取pte中的权限位
 */
static inline uint32_t get_pte_perm (pte_t * pte) {
   103c5:	55                   	push   %ebp
   103c6:	89 e5                	mov    %esp,%ebp
    return (pte->v & 0x3FF);
   103c8:	8b 45 08             	mov    0x8(%ebp),%eax
   103cb:	8b 00                	mov    (%eax),%eax
   103cd:	25 ff 03 00 00       	and    $0x3ff,%eax
}
   103d2:	5d                   	pop    %ebp
   103d3:	c3                   	ret    

000103d4 <mmu_set_page_dir>:

/**
 * @brief 重新加载整个页表
 * @param vaddr 页表的虚拟地址
 */
static inline void mmu_set_page_dir (uint32_t paddr) {
   103d4:	55                   	push   %ebp
   103d5:	89 e5                	mov    %esp,%ebp
    // 将虚拟地址转换为物理地址
    write_cr3(paddr);
   103d7:	ff 75 08             	pushl  0x8(%ebp)
   103da:	e8 68 ff ff ff       	call   10347 <write_cr3>
   103df:	83 c4 04             	add    $0x4,%esp
}
   103e2:	90                   	nop
   103e3:	c9                   	leave  
   103e4:	c3                   	ret    

000103e5 <current_page_dir>:
static pde_t kernel_page_dir[PDE_CNT] __attribute__((aligned(MEM_PAGE_SIZE))); // 内核页目录表

/**
 * @brief 获取当前页表地址
 */
static pde_t * current_page_dir (void) {
   103e5:	55                   	push   %ebp
   103e6:	89 e5                	mov    %esp,%ebp
   103e8:	83 ec 08             	sub    $0x8,%esp
    return (pde_t *)task_current()->tss.cr3;
   103eb:	e8 1d 13 00 00       	call   1170d <task_current>
   103f0:	8b 80 60 02 00 00    	mov    0x260(%eax),%eax
}
   103f6:	c9                   	leave  
   103f7:	c3                   	ret    

000103f8 <addr_alloc_init>:
/**
 * @brief 初始化地址分配结构
 * 以下不检查start和size的页边界，由上层调用者检查
 */
static void addr_alloc_init (addr_alloc_t * alloc, uint8_t * bits,
                    uint32_t start, uint32_t size, uint32_t page_size) {
   103f8:	55                   	push   %ebp
   103f9:	89 e5                	mov    %esp,%ebp
   103fb:	83 ec 08             	sub    $0x8,%esp
    mutex_init(&alloc->mutex);
   103fe:	8b 45 08             	mov    0x8(%ebp),%eax
   10401:	83 ec 0c             	sub    $0xc,%esp
   10404:	50                   	push   %eax
   10405:	e8 31 79 00 00       	call   17d3b <mutex_init>
   1040a:	83 c4 10             	add    $0x10,%esp
    alloc->start = start;
   1040d:	8b 45 08             	mov    0x8(%ebp),%eax
   10410:	8b 55 10             	mov    0x10(%ebp),%edx
   10413:	89 50 20             	mov    %edx,0x20(%eax)
    alloc->size = size;
   10416:	8b 45 08             	mov    0x8(%ebp),%eax
   10419:	8b 55 14             	mov    0x14(%ebp),%edx
   1041c:	89 50 24             	mov    %edx,0x24(%eax)
    alloc->page_size = page_size;
   1041f:	8b 45 08             	mov    0x8(%ebp),%eax
   10422:	8b 55 18             	mov    0x18(%ebp),%edx
   10425:	89 50 1c             	mov    %edx,0x1c(%eax)
    bitmap_init(&alloc->bitmap, bits, alloc->size / page_size, 0);
   10428:	8b 45 08             	mov    0x8(%ebp),%eax
   1042b:	8b 40 24             	mov    0x24(%eax),%eax
   1042e:	ba 00 00 00 00       	mov    $0x0,%edx
   10433:	f7 75 18             	divl   0x18(%ebp)
   10436:	89 c2                	mov    %eax,%edx
   10438:	8b 45 08             	mov    0x8(%ebp),%eax
   1043b:	83 c0 14             	add    $0x14,%eax
   1043e:	6a 00                	push   $0x0
   10440:	52                   	push   %edx
   10441:	ff 75 0c             	pushl  0xc(%ebp)
   10444:	50                   	push   %eax
   10445:	e8 d4 7b 00 00       	call   1801e <bitmap_init>
   1044a:	83 c4 10             	add    $0x10,%esp
}
   1044d:	90                   	nop
   1044e:	c9                   	leave  
   1044f:	c3                   	ret    

00010450 <addr_alloc_page>:

/**
 * @brief 分配多页内存
 */
static uint32_t addr_alloc_page (addr_alloc_t * alloc, int page_count) {
   10450:	55                   	push   %ebp
   10451:	89 e5                	mov    %esp,%ebp
   10453:	83 ec 18             	sub    $0x18,%esp
    uint32_t addr = 0;
   10456:	c7 45 f4 00 00 00 00 	movl   $0x0,-0xc(%ebp)

    mutex_lock(&alloc->mutex);
   1045d:	8b 45 08             	mov    0x8(%ebp),%eax
   10460:	83 ec 0c             	sub    $0xc,%esp
   10463:	50                   	push   %eax
   10464:	e8 00 79 00 00       	call   17d69 <mutex_lock>
   10469:	83 c4 10             	add    $0x10,%esp

    int page_index = bitmap_alloc_nbits(&alloc->bitmap, 0, page_count);
   1046c:	8b 45 08             	mov    0x8(%ebp),%eax
   1046f:	83 c0 14             	add    $0x14,%eax
   10472:	83 ec 04             	sub    $0x4,%esp
   10475:	ff 75 0c             	pushl  0xc(%ebp)
   10478:	6a 00                	push   $0x0
   1047a:	50                   	push   %eax
   1047b:	e8 1e 7d 00 00       	call   1819e <bitmap_alloc_nbits>
   10480:	83 c4 10             	add    $0x10,%esp
   10483:	89 45 f0             	mov    %eax,-0x10(%ebp)
    if (page_index >= 0) {
   10486:	83 7d f0 00          	cmpl   $0x0,-0x10(%ebp)
   1048a:	78 17                	js     104a3 <addr_alloc_page+0x53>
        addr = alloc->start + page_index * alloc->page_size;
   1048c:	8b 45 08             	mov    0x8(%ebp),%eax
   1048f:	8b 50 20             	mov    0x20(%eax),%edx
   10492:	8b 45 08             	mov    0x8(%ebp),%eax
   10495:	8b 48 1c             	mov    0x1c(%eax),%ecx
   10498:	8b 45 f0             	mov    -0x10(%ebp),%eax
   1049b:	0f af c1             	imul   %ecx,%eax
   1049e:	01 d0                	add    %edx,%eax
   104a0:	89 45 f4             	mov    %eax,-0xc(%ebp)
    }

    mutex_unlock(&alloc->mutex);
   104a3:	8b 45 08             	mov    0x8(%ebp),%eax
   104a6:	83 ec 0c             	sub    $0xc,%esp
   104a9:	50                   	push   %eax
   104aa:	e8 51 79 00 00       	call   17e00 <mutex_unlock>
   104af:	83 c4 10             	add    $0x10,%esp
    return addr;
   104b2:	8b 45 f4             	mov    -0xc(%ebp),%eax
}
   104b5:	c9                   	leave  
   104b6:	c3                   	ret    

000104b7 <addr_free_page>:

/**
 * @brief 释放多页内存
 */
static void addr_free_page (addr_alloc_t * alloc, uint32_t addr, int page_count) {
   104b7:	55                   	push   %ebp
   104b8:	89 e5                	mov    %esp,%ebp
   104ba:	53                   	push   %ebx
   104bb:	83 ec 14             	sub    $0x14,%esp
    mutex_lock(&alloc->mutex);
   104be:	8b 45 08             	mov    0x8(%ebp),%eax
   104c1:	83 ec 0c             	sub    $0xc,%esp
   104c4:	50                   	push   %eax
   104c5:	e8 9f 78 00 00       	call   17d69 <mutex_lock>
   104ca:	83 c4 10             	add    $0x10,%esp

    uint32_t pg_idx = (addr - alloc->start) / alloc->page_size;
   104cd:	8b 45 08             	mov    0x8(%ebp),%eax
   104d0:	8b 40 20             	mov    0x20(%eax),%eax
   104d3:	8b 55 0c             	mov    0xc(%ebp),%edx
   104d6:	89 d1                	mov    %edx,%ecx
   104d8:	29 c1                	sub    %eax,%ecx
   104da:	8b 45 08             	mov    0x8(%ebp),%eax
   104dd:	8b 58 1c             	mov    0x1c(%eax),%ebx
   104e0:	89 c8                	mov    %ecx,%eax
   104e2:	ba 00 00 00 00       	mov    $0x0,%edx
   104e7:	f7 f3                	div    %ebx
   104e9:	89 45 f4             	mov    %eax,-0xc(%ebp)
    bitmap_set_bit(&alloc->bitmap, pg_idx, page_count, 0);
   104ec:	8b 45 f4             	mov    -0xc(%ebp),%eax
   104ef:	8b 55 08             	mov    0x8(%ebp),%edx
   104f2:	83 c2 14             	add    $0x14,%edx
   104f5:	6a 00                	push   $0x0
   104f7:	ff 75 10             	pushl  0x10(%ebp)
   104fa:	50                   	push   %eax
   104fb:	52                   	push   %edx
   104fc:	e8 70 7b 00 00       	call   18071 <bitmap_set_bit>
   10501:	83 c4 10             	add    $0x10,%esp

    mutex_unlock(&alloc->mutex);
   10504:	8b 45 08             	mov    0x8(%ebp),%eax
   10507:	83 ec 0c             	sub    $0xc,%esp
   1050a:	50                   	push   %eax
   1050b:	e8 f0 78 00 00       	call   17e00 <mutex_unlock>
   10510:	83 c4 10             	add    $0x10,%esp
}
   10513:	90                   	nop
   10514:	8b 5d fc             	mov    -0x4(%ebp),%ebx
   10517:	c9                   	leave  
   10518:	c3                   	ret    

00010519 <show_mem_info>:

static void show_mem_info (boot_info_t * boot_info) {
   10519:	55                   	push   %ebp
   1051a:	89 e5                	mov    %esp,%ebp
   1051c:	83 ec 18             	sub    $0x18,%esp
    log_printf("mem region:");
   1051f:	83 ec 0c             	sub    $0xc,%esp
   10522:	68 00 8b 01 00       	push   $0x18b00
   10527:	e8 04 85 00 00       	call   18a30 <log_printf>
   1052c:	83 c4 10             	add    $0x10,%esp
    for (int i = 0; i < boot_info->ram_region_count; i++) {
   1052f:	c7 45 f4 00 00 00 00 	movl   $0x0,-0xc(%ebp)
   10536:	eb 29                	jmp    10561 <show_mem_info+0x48>
        log_printf("[%d]: 0x%x - 0x%x", i,
   10538:	8b 45 08             	mov    0x8(%ebp),%eax
   1053b:	8b 55 f4             	mov    -0xc(%ebp),%edx
   1053e:	8b 54 d0 04          	mov    0x4(%eax,%edx,8),%edx
   10542:	8b 45 08             	mov    0x8(%ebp),%eax
   10545:	8b 4d f4             	mov    -0xc(%ebp),%ecx
   10548:	8b 04 c8             	mov    (%eax,%ecx,8),%eax
   1054b:	52                   	push   %edx
   1054c:	50                   	push   %eax
   1054d:	ff 75 f4             	pushl  -0xc(%ebp)
   10550:	68 0c 8b 01 00       	push   $0x18b0c
   10555:	e8 d6 84 00 00       	call   18a30 <log_printf>
   1055a:	83 c4 10             	add    $0x10,%esp
    for (int i = 0; i < boot_info->ram_region_count; i++) {
   1055d:	83 45 f4 01          	addl   $0x1,-0xc(%ebp)
   10561:	8b 45 08             	mov    0x8(%ebp),%eax
   10564:	8b 40 50             	mov    0x50(%eax),%eax
   10567:	39 45 f4             	cmp    %eax,-0xc(%ebp)
   1056a:	7c cc                	jl     10538 <show_mem_info+0x1f>
                    boot_info->ram_region_cfg[i].start,
                    boot_info->ram_region_cfg[i].size);
    }
    log_printf("\n");
   1056c:	83 ec 0c             	sub    $0xc,%esp
   1056f:	68 1e 8b 01 00       	push   $0x18b1e
   10574:	e8 b7 84 00 00       	call   18a30 <log_printf>
   10579:	83 c4 10             	add    $0x10,%esp
}
   1057c:	90                   	nop
   1057d:	c9                   	leave  
   1057e:	c3                   	ret    

0001057f <total_mem_size>:

/**
 * @brief 获取可用的物理内存大小
 */
static uint32_t total_mem_size(boot_info_t * boot_info) {
   1057f:	55                   	push   %ebp
   10580:	89 e5                	mov    %esp,%ebp
   10582:	83 ec 10             	sub    $0x10,%esp
    int mem_size = 0;
   10585:	c7 45 fc 00 00 00 00 	movl   $0x0,-0x4(%ebp)

    // 简单起见，暂不考虑中间有空洞的情况
    for (int i = 0; i < boot_info->ram_region_count; i++) {
   1058c:	c7 45 f8 00 00 00 00 	movl   $0x0,-0x8(%ebp)
   10593:	eb 16                	jmp    105ab <total_mem_size+0x2c>
        mem_size += boot_info->ram_region_cfg[i].size;
   10595:	8b 45 08             	mov    0x8(%ebp),%eax
   10598:	8b 55 f8             	mov    -0x8(%ebp),%edx
   1059b:	8b 54 d0 04          	mov    0x4(%eax,%edx,8),%edx
   1059f:	8b 45 fc             	mov    -0x4(%ebp),%eax
   105a2:	01 d0                	add    %edx,%eax
   105a4:	89 45 fc             	mov    %eax,-0x4(%ebp)
    for (int i = 0; i < boot_info->ram_region_count; i++) {
   105a7:	83 45 f8 01          	addl   $0x1,-0x8(%ebp)
   105ab:	8b 45 08             	mov    0x8(%ebp),%eax
   105ae:	8b 40 50             	mov    0x50(%eax),%eax
   105b1:	39 45 f8             	cmp    %eax,-0x8(%ebp)
   105b4:	7c df                	jl     10595 <total_mem_size+0x16>
    }
    return mem_size;
   105b6:	8b 45 fc             	mov    -0x4(%ebp),%eax
}
   105b9:	c9                   	leave  
   105ba:	c3                   	ret    

000105bb <find_pte>:

pte_t * find_pte (pde_t * page_dir, uint32_t vaddr, int alloc) {
   105bb:	55                   	push   %ebp
   105bc:	89 e5                	mov    %esp,%ebp
   105be:	83 ec 18             	sub    $0x18,%esp
    pte_t * page_table;

    pde_t *pde = page_dir + pde_index(vaddr);
   105c1:	ff 75 0c             	pushl  0xc(%ebp)
   105c4:	e8 8a fd ff ff       	call   10353 <pde_index>
   105c9:	83 c4 04             	add    $0x4,%esp
   105cc:	8d 14 85 00 00 00 00 	lea    0x0(,%eax,4),%edx
   105d3:	8b 45 08             	mov    0x8(%ebp),%eax
   105d6:	01 d0                	add    %edx,%eax
   105d8:	89 45 f0             	mov    %eax,-0x10(%ebp)
    if (pde->present) {
   105db:	8b 45 f0             	mov    -0x10(%ebp),%eax
   105de:	0f b6 00             	movzbl (%eax),%eax
   105e1:	83 e0 01             	and    $0x1,%eax
   105e4:	84 c0                	test   %al,%al
   105e6:	74 10                	je     105f8 <find_pte+0x3d>
        page_table = (pte_t *)pde_paddr(pde);
   105e8:	ff 75 f0             	pushl  -0x10(%ebp)
   105eb:	e8 77 fd ff ff       	call   10367 <pde_paddr>
   105f0:	83 c4 04             	add    $0x4,%esp
   105f3:	89 45 f4             	mov    %eax,-0xc(%ebp)
   105f6:	eb 57                	jmp    1064f <find_pte+0x94>
    } else {
        // 如果不存在，则考虑分配一个
        if (alloc == 0) {
   105f8:	83 7d 10 00          	cmpl   $0x0,0x10(%ebp)
   105fc:	75 07                	jne    10605 <find_pte+0x4a>
            return (pte_t *)0;
   105fe:	b8 00 00 00 00       	mov    $0x0,%eax
   10603:	eb 64                	jmp    10669 <find_pte+0xae>
        }

        // 分配一个物理页表
        uint32_t pg_paddr = addr_alloc_page(&paddr_alloc, 1);
   10605:	83 ec 08             	sub    $0x8,%esp
   10608:	6a 01                	push   $0x1
   1060a:	68 00 b0 01 00       	push   $0x1b000
   1060f:	e8 3c fe ff ff       	call   10450 <addr_alloc_page>
   10614:	83 c4 10             	add    $0x10,%esp
   10617:	89 45 ec             	mov    %eax,-0x14(%ebp)
        if (pg_paddr == 0) {
   1061a:	83 7d ec 00          	cmpl   $0x0,-0x14(%ebp)
   1061e:	75 07                	jne    10627 <find_pte+0x6c>
            return (pte_t *)0;
   10620:	b8 00 00 00 00       	mov    $0x0,%eax
   10625:	eb 42                	jmp    10669 <find_pte+0xae>
        }

        // 设置为用户可读写，将被pte中设置所覆盖
        pde->v = pg_paddr | PTE_P | PTE_W | PDE_U;
   10627:	8b 45 ec             	mov    -0x14(%ebp),%eax
   1062a:	83 c8 07             	or     $0x7,%eax
   1062d:	89 c2                	mov    %eax,%edx
   1062f:	8b 45 f0             	mov    -0x10(%ebp),%eax
   10632:	89 10                	mov    %edx,(%eax)
        // 为物理页表绑定虚拟地址的映射，这样下面就可以计算出虚拟地址了
        //kernel_pg_last[pde_index(vaddr)].v = pg_paddr | PTE_P | PTE_W;

        // 清空页表，防止出现异常
        // 这里虚拟地址和物理地址一一映射，所以直接写入
        page_table = (pte_t *)(pg_paddr);
   10634:	8b 45 ec             	mov    -0x14(%ebp),%eax
   10637:	89 45 f4             	mov    %eax,-0xc(%ebp)
        kernel_memset(page_table, 0, MEM_PAGE_SIZE);
   1063a:	83 ec 04             	sub    $0x4,%esp
   1063d:	68 00 10 00 00       	push   $0x1000
   10642:	6a 00                	push   $0x0
   10644:	ff 75 f4             	pushl  -0xc(%ebp)
   10647:	e8 3a 7e 00 00       	call   18486 <kernel_memset>
   1064c:	83 c4 10             	add    $0x10,%esp
    }

    return page_table + pte_index(vaddr);
   1064f:	83 ec 0c             	sub    $0xc,%esp
   10652:	ff 75 0c             	pushl  0xc(%ebp)
   10655:	e8 34 fd ff ff       	call   1038e <pte_index>
   1065a:	83 c4 10             	add    $0x10,%esp
   1065d:	8d 14 85 00 00 00 00 	lea    0x0(,%eax,4),%edx
   10664:	8b 45 f4             	mov    -0xc(%ebp),%eax
   10667:	01 d0                	add    %edx,%eax
}
   10669:	c9                   	leave  
   1066a:	c3                   	ret    

0001066b <memory_create_map>:

/**
 * @brief 将指定的地址空间进行一页的映射
 */
int memory_create_map (pde_t * page_dir, uint32_t vaddr, uint32_t paddr, int count, uint32_t perm) {
   1066b:	55                   	push   %ebp
   1066c:	89 e5                	mov    %esp,%ebp
   1066e:	83 ec 18             	sub    $0x18,%esp
    for (int i = 0; i < count; i++) {
   10671:	c7 45 f4 00 00 00 00 	movl   $0x0,-0xc(%ebp)
   10678:	eb 6e                	jmp    106e8 <memory_create_map+0x7d>
        // log_printf("create map: v-0x%x p-0x%x, perm: 0x%x", vaddr, paddr, perm);

        pte_t * pte = find_pte(page_dir, vaddr, 1);
   1067a:	83 ec 04             	sub    $0x4,%esp
   1067d:	6a 01                	push   $0x1
   1067f:	ff 75 0c             	pushl  0xc(%ebp)
   10682:	ff 75 08             	pushl  0x8(%ebp)
   10685:	e8 31 ff ff ff       	call   105bb <find_pte>
   1068a:	83 c4 10             	add    $0x10,%esp
   1068d:	89 45 f0             	mov    %eax,-0x10(%ebp)
        if (pte == (pte_t *)0) {
   10690:	83 7d f0 00          	cmpl   $0x0,-0x10(%ebp)
   10694:	75 07                	jne    1069d <memory_create_map+0x32>
            // log_printf("create pte failed. pte == 0");
            return -1;
   10696:	b8 ff ff ff ff       	mov    $0xffffffff,%eax
   1069b:	eb 58                	jmp    106f5 <memory_create_map+0x8a>
        }

        // 创建映射的时候，这条pte应当是不存在的。
        // 如果存在，说明可能有问题
        // log_printf("\tpte addr: 0x%x", (uint32_t)pte);
        ASSERT(pte->present == 0);
   1069d:	8b 45 f0             	mov    -0x10(%ebp),%eax
   106a0:	0f b6 00             	movzbl (%eax),%eax
   106a3:	83 e0 01             	and    $0x1,%eax
   106a6:	84 c0                	test   %al,%al
   106a8:	74 1c                	je     106c6 <memory_create_map+0x5b>
   106aa:	68 20 8b 01 00       	push   $0x18b20
   106af:	68 60 8c 01 00       	push   $0x18c60
   106b4:	68 87 00 00 00       	push   $0x87
   106b9:	68 34 8b 01 00       	push   $0x18b34
   106be:	e8 10 81 00 00       	call   187d3 <panic>
   106c3:	83 c4 10             	add    $0x10,%esp

        pte->v = paddr | perm | PTE_P;
   106c6:	8b 45 10             	mov    0x10(%ebp),%eax
   106c9:	0b 45 18             	or     0x18(%ebp),%eax
   106cc:	83 c8 01             	or     $0x1,%eax
   106cf:	89 c2                	mov    %eax,%edx
   106d1:	8b 45 f0             	mov    -0x10(%ebp),%eax
   106d4:	89 10                	mov    %edx,(%eax)

        vaddr += MEM_PAGE_SIZE;
   106d6:	81 45 0c 00 10 00 00 	addl   $0x1000,0xc(%ebp)
        paddr += MEM_PAGE_SIZE;
   106dd:	81 45 10 00 10 00 00 	addl   $0x1000,0x10(%ebp)
    for (int i = 0; i < count; i++) {
   106e4:	83 45 f4 01          	addl   $0x1,-0xc(%ebp)
   106e8:	8b 45 f4             	mov    -0xc(%ebp),%eax
   106eb:	3b 45 14             	cmp    0x14(%ebp),%eax
   106ee:	7c 8a                	jl     1067a <memory_create_map+0xf>
    }

    return 0;
   106f0:	b8 00 00 00 00       	mov    $0x0,%eax
}
   106f5:	c9                   	leave  
   106f6:	c3                   	ret    

000106f7 <create_kernel_table>:

/**
 * @brief 根据内存映射表，构造内核页表
 */
void create_kernel_table (void) {
   106f7:	55                   	push   %ebp
   106f8:	89 e5                	mov    %esp,%ebp
   106fa:	83 ec 28             	sub    $0x28,%esp
        // 扩展存储空间一一映射，方便直接操作
        {(void *)MEM_EXT_START, (void *)MEM_EXT_END,     (void *)MEM_EXT_START, PTE_W},
    };

    // 清空页目录表
    kernel_memset(kernel_page_dir, 0, sizeof(kernel_page_dir));
   106fd:	83 ec 04             	sub    $0x4,%esp
   10700:	68 00 10 00 00       	push   $0x1000
   10705:	6a 00                	push   $0x0
   10707:	68 00 c0 01 00       	push   $0x1c000
   1070c:	e8 75 7d 00 00       	call   18486 <kernel_memset>
   10711:	83 c4 10             	add    $0x10,%esp

    // 清空后，然后依次根据映射关系创建映射表
    for (int i = 0; i < sizeof(kernel_map) / sizeof(memory_map_t); i++) {
   10714:	c7 45 f4 00 00 00 00 	movl   $0x0,-0xc(%ebp)
   1071b:	e9 83 00 00 00       	jmp    107a3 <create_kernel_table+0xac>
        memory_map_t * map = kernel_map + i;
   10720:	8b 45 f4             	mov    -0xc(%ebp),%eax
   10723:	c1 e0 04             	shl    $0x4,%eax
   10726:	05 00 a0 01 00       	add    $0x1a000,%eax
   1072b:	89 45 f0             	mov    %eax,-0x10(%ebp)

        // 可能有多个页，建立多个页的配置
        // 简化起见，不考虑4M的情况
        int vstart = down2((uint32_t)map->vstart, MEM_PAGE_SIZE);
   1072e:	8b 45 f0             	mov    -0x10(%ebp),%eax
   10731:	8b 00                	mov    (%eax),%eax
   10733:	83 ec 08             	sub    $0x8,%esp
   10736:	68 00 10 00 00       	push   $0x1000
   1073b:	50                   	push   %eax
   1073c:	e8 f9 fb ff ff       	call   1033a <down2>
   10741:	83 c4 10             	add    $0x10,%esp
   10744:	89 45 ec             	mov    %eax,-0x14(%ebp)
        int vend = up2((uint32_t)map->vend, MEM_PAGE_SIZE);
   10747:	8b 45 f0             	mov    -0x10(%ebp),%eax
   1074a:	8b 40 04             	mov    0x4(%eax),%eax
   1074d:	83 ec 08             	sub    $0x8,%esp
   10750:	68 00 10 00 00       	push   $0x1000
   10755:	50                   	push   %eax
   10756:	e8 c8 fb ff ff       	call   10323 <up2>
   1075b:	83 c4 10             	add    $0x10,%esp
   1075e:	89 45 e8             	mov    %eax,-0x18(%ebp)
        int page_count = (vend - vstart) / MEM_PAGE_SIZE;
   10761:	8b 45 e8             	mov    -0x18(%ebp),%eax
   10764:	2b 45 ec             	sub    -0x14(%ebp),%eax
   10767:	8d 90 ff 0f 00 00    	lea    0xfff(%eax),%edx
   1076d:	85 c0                	test   %eax,%eax
   1076f:	0f 48 c2             	cmovs  %edx,%eax
   10772:	c1 f8 0c             	sar    $0xc,%eax
   10775:	89 45 e4             	mov    %eax,-0x1c(%ebp)

        memory_create_map(kernel_page_dir, vstart, (uint32_t)map->pstart, page_count, map->perm);
   10778:	8b 45 f0             	mov    -0x10(%ebp),%eax
   1077b:	8b 50 0c             	mov    0xc(%eax),%edx
   1077e:	8b 45 f0             	mov    -0x10(%ebp),%eax
   10781:	8b 40 08             	mov    0x8(%eax),%eax
   10784:	89 c1                	mov    %eax,%ecx
   10786:	8b 45 ec             	mov    -0x14(%ebp),%eax
   10789:	83 ec 0c             	sub    $0xc,%esp
   1078c:	52                   	push   %edx
   1078d:	ff 75 e4             	pushl  -0x1c(%ebp)
   10790:	51                   	push   %ecx
   10791:	50                   	push   %eax
   10792:	68 00 c0 01 00       	push   $0x1c000
   10797:	e8 cf fe ff ff       	call   1066b <memory_create_map>
   1079c:	83 c4 20             	add    $0x20,%esp
    for (int i = 0; i < sizeof(kernel_map) / sizeof(memory_map_t); i++) {
   1079f:	83 45 f4 01          	addl   $0x1,-0xc(%ebp)
   107a3:	8b 45 f4             	mov    -0xc(%ebp),%eax
   107a6:	83 f8 04             	cmp    $0x4,%eax
   107a9:	0f 86 71 ff ff ff    	jbe    10720 <create_kernel_table+0x29>
    }
}
   107af:	90                   	nop
   107b0:	c9                   	leave  
   107b1:	c3                   	ret    

000107b2 <memory_create_uvm>:

/**
 * @brief 创建进程的初始页表
 * 主要的工作创建页目录表，然后从内核页表中复制一部分
 */
uint32_t memory_create_uvm (void) {
   107b2:	55                   	push   %ebp
   107b3:	89 e5                	mov    %esp,%ebp
   107b5:	83 ec 18             	sub    $0x18,%esp
    pde_t * page_dir = (pde_t *)addr_alloc_page(&paddr_alloc, 1);
   107b8:	83 ec 08             	sub    $0x8,%esp
   107bb:	6a 01                	push   $0x1
   107bd:	68 00 b0 01 00       	push   $0x1b000
   107c2:	e8 89 fc ff ff       	call   10450 <addr_alloc_page>
   107c7:	83 c4 10             	add    $0x10,%esp
   107ca:	89 45 f0             	mov    %eax,-0x10(%ebp)
    if (page_dir == 0) {
   107cd:	83 7d f0 00          	cmpl   $0x0,-0x10(%ebp)
   107d1:	75 07                	jne    107da <memory_create_uvm+0x28>
        return 0;
   107d3:	b8 00 00 00 00       	mov    $0x0,%eax
   107d8:	eb 5b                	jmp    10835 <memory_create_uvm+0x83>
    }
    kernel_memset((void *)page_dir, 0, MEM_PAGE_SIZE);
   107da:	83 ec 04             	sub    $0x4,%esp
   107dd:	68 00 10 00 00       	push   $0x1000
   107e2:	6a 00                	push   $0x0
   107e4:	ff 75 f0             	pushl  -0x10(%ebp)
   107e7:	e8 9a 7c 00 00       	call   18486 <kernel_memset>
   107ec:	83 c4 10             	add    $0x10,%esp

    // 复制整个内核空间的页目录项，以便与其它进程共享内核空间
    // 用户空间的内存映射暂不处理，等加载程序时创建
    uint32_t user_pde_start = pde_index(MEMORY_TASK_BASE);
   107ef:	83 ec 0c             	sub    $0xc,%esp
   107f2:	68 00 00 00 80       	push   $0x80000000
   107f7:	e8 57 fb ff ff       	call   10353 <pde_index>
   107fc:	83 c4 10             	add    $0x10,%esp
   107ff:	89 45 ec             	mov    %eax,-0x14(%ebp)
    for (int i = 0; i < user_pde_start; i++) {
   10802:	c7 45 f4 00 00 00 00 	movl   $0x0,-0xc(%ebp)
   10809:	eb 1f                	jmp    1082a <memory_create_uvm+0x78>
        page_dir[i].v = kernel_page_dir[i].v;
   1080b:	8b 45 f4             	mov    -0xc(%ebp),%eax
   1080e:	8d 14 85 00 00 00 00 	lea    0x0(,%eax,4),%edx
   10815:	8b 45 f0             	mov    -0x10(%ebp),%eax
   10818:	01 c2                	add    %eax,%edx
   1081a:	8b 45 f4             	mov    -0xc(%ebp),%eax
   1081d:	8b 04 85 00 c0 01 00 	mov    0x1c000(,%eax,4),%eax
   10824:	89 02                	mov    %eax,(%edx)
    for (int i = 0; i < user_pde_start; i++) {
   10826:	83 45 f4 01          	addl   $0x1,-0xc(%ebp)
   1082a:	8b 45 f4             	mov    -0xc(%ebp),%eax
   1082d:	39 45 ec             	cmp    %eax,-0x14(%ebp)
   10830:	77 d9                	ja     1080b <memory_create_uvm+0x59>
    }

    return (uint32_t)page_dir;
   10832:	8b 45 f0             	mov    -0x10(%ebp),%eax
}
   10835:	c9                   	leave  
   10836:	c3                   	ret    

00010837 <memory_destroy_uvm>:

/**
 * @brief 销毁用户空间内存
 */
void memory_destroy_uvm (uint32_t page_dir) {
   10837:	55                   	push   %ebp
   10838:	89 e5                	mov    %esp,%ebp
   1083a:	83 ec 28             	sub    $0x28,%esp
    uint32_t user_pde_start = pde_index(MEMORY_TASK_BASE);
   1083d:	68 00 00 00 80       	push   $0x80000000
   10842:	e8 0c fb ff ff       	call   10353 <pde_index>
   10847:	83 c4 04             	add    $0x4,%esp
   1084a:	89 45 e4             	mov    %eax,-0x1c(%ebp)
    pde_t * pde = (pde_t *)page_dir + user_pde_start;
   1084d:	8b 45 e4             	mov    -0x1c(%ebp),%eax
   10850:	8d 14 85 00 00 00 00 	lea    0x0(,%eax,4),%edx
   10857:	8b 45 08             	mov    0x8(%ebp),%eax
   1085a:	01 d0                	add    %edx,%eax
   1085c:	89 45 f4             	mov    %eax,-0xc(%ebp)

    ASSERT(page_dir != 0);
   1085f:	83 7d 08 00          	cmpl   $0x0,0x8(%ebp)
   10863:	75 1c                	jne    10881 <memory_destroy_uvm+0x4a>
   10865:	68 67 8b 01 00       	push   $0x18b67
   1086a:	68 74 8c 01 00       	push   $0x18c74
   1086f:	68 d2 00 00 00       	push   $0xd2
   10874:	68 34 8b 01 00       	push   $0x18b34
   10879:	e8 55 7f 00 00       	call   187d3 <panic>
   1087e:	83 c4 10             	add    $0x10,%esp

    // 释放页表中对应的各项，不包含映射的内核页面
    for (int i = user_pde_start; i < PDE_CNT; i++, pde++) {
   10881:	8b 45 e4             	mov    -0x1c(%ebp),%eax
   10884:	89 45 f0             	mov    %eax,-0x10(%ebp)
   10887:	e9 95 00 00 00       	jmp    10921 <memory_destroy_uvm+0xea>
        if (!pde->present) {
   1088c:	8b 45 f4             	mov    -0xc(%ebp),%eax
   1088f:	0f b6 00             	movzbl (%eax),%eax
   10892:	83 e0 01             	and    $0x1,%eax
   10895:	84 c0                	test   %al,%al
   10897:	74 7f                	je     10918 <memory_destroy_uvm+0xe1>
            continue;
        }

        // 释放页表对应的物理页 + 页表
        pte_t * pte = (pte_t *)pde_paddr(pde);
   10899:	83 ec 0c             	sub    $0xc,%esp
   1089c:	ff 75 f4             	pushl  -0xc(%ebp)
   1089f:	e8 c3 fa ff ff       	call   10367 <pde_paddr>
   108a4:	83 c4 10             	add    $0x10,%esp
   108a7:	89 45 ec             	mov    %eax,-0x14(%ebp)
        for (int j = 0; j < PTE_CNT; j++, pte++) {
   108aa:	c7 45 e8 00 00 00 00 	movl   $0x0,-0x18(%ebp)
   108b1:	eb 39                	jmp    108ec <memory_destroy_uvm+0xb5>
            if (!pte->present) {
   108b3:	8b 45 ec             	mov    -0x14(%ebp),%eax
   108b6:	0f b6 00             	movzbl (%eax),%eax
   108b9:	83 e0 01             	and    $0x1,%eax
   108bc:	84 c0                	test   %al,%al
   108be:	74 23                	je     108e3 <memory_destroy_uvm+0xac>
                continue;
            }

            addr_free_page(&paddr_alloc, pte_paddr(pte), 1);
   108c0:	83 ec 0c             	sub    $0xc,%esp
   108c3:	ff 75 ec             	pushl  -0x14(%ebp)
   108c6:	e8 d3 fa ff ff       	call   1039e <pte_paddr>
   108cb:	83 c4 10             	add    $0x10,%esp
   108ce:	83 ec 04             	sub    $0x4,%esp
   108d1:	6a 01                	push   $0x1
   108d3:	50                   	push   %eax
   108d4:	68 00 b0 01 00       	push   $0x1b000
   108d9:	e8 d9 fb ff ff       	call   104b7 <addr_free_page>
   108de:	83 c4 10             	add    $0x10,%esp
   108e1:	eb 01                	jmp    108e4 <memory_destroy_uvm+0xad>
                continue;
   108e3:	90                   	nop
        for (int j = 0; j < PTE_CNT; j++, pte++) {
   108e4:	83 45 e8 01          	addl   $0x1,-0x18(%ebp)
   108e8:	83 45 ec 04          	addl   $0x4,-0x14(%ebp)
   108ec:	81 7d e8 ff 03 00 00 	cmpl   $0x3ff,-0x18(%ebp)
   108f3:	7e be                	jle    108b3 <memory_destroy_uvm+0x7c>
        }

        addr_free_page(&paddr_alloc, (uint32_t)pde_paddr(pde), 1);
   108f5:	83 ec 0c             	sub    $0xc,%esp
   108f8:	ff 75 f4             	pushl  -0xc(%ebp)
   108fb:	e8 67 fa ff ff       	call   10367 <pde_paddr>
   10900:	83 c4 10             	add    $0x10,%esp
   10903:	83 ec 04             	sub    $0x4,%esp
   10906:	6a 01                	push   $0x1
   10908:	50                   	push   %eax
   10909:	68 00 b0 01 00       	push   $0x1b000
   1090e:	e8 a4 fb ff ff       	call   104b7 <addr_free_page>
   10913:	83 c4 10             	add    $0x10,%esp
   10916:	eb 01                	jmp    10919 <memory_destroy_uvm+0xe2>
            continue;
   10918:	90                   	nop
    for (int i = user_pde_start; i < PDE_CNT; i++, pde++) {
   10919:	83 45 f0 01          	addl   $0x1,-0x10(%ebp)
   1091d:	83 45 f4 04          	addl   $0x4,-0xc(%ebp)
   10921:	81 7d f0 ff 03 00 00 	cmpl   $0x3ff,-0x10(%ebp)
   10928:	0f 8e 5e ff ff ff    	jle    1088c <memory_destroy_uvm+0x55>
    }

    // 页目录表
    addr_free_page(&paddr_alloc, page_dir, 1);
   1092e:	83 ec 04             	sub    $0x4,%esp
   10931:	6a 01                	push   $0x1
   10933:	ff 75 08             	pushl  0x8(%ebp)
   10936:	68 00 b0 01 00       	push   $0x1b000
   1093b:	e8 77 fb ff ff       	call   104b7 <addr_free_page>
   10940:	83 c4 10             	add    $0x10,%esp
}
   10943:	90                   	nop
   10944:	c9                   	leave  
   10945:	c3                   	ret    

00010946 <memory_copy_uvm>:

/**
 * @brief 复制页表及其所有的内存空间
 */
uint32_t memory_copy_uvm (uint32_t page_dir) {
   10946:	55                   	push   %ebp
   10947:	89 e5                	mov    %esp,%ebp
   10949:	83 ec 38             	sub    $0x38,%esp
    // 复制基础页表
    uint32_t to_page_dir = memory_create_uvm();
   1094c:	e8 61 fe ff ff       	call   107b2 <memory_create_uvm>
   10951:	89 45 e4             	mov    %eax,-0x1c(%ebp)
    if (to_page_dir == 0) {
   10954:	83 7d e4 00          	cmpl   $0x0,-0x1c(%ebp)
   10958:	0f 84 1b 01 00 00    	je     10a79 <memory_copy_uvm+0x133>
        goto copy_uvm_failed;
    }

    // 再复制用户空间的各项
    uint32_t user_pde_start = pde_index(MEMORY_TASK_BASE);
   1095e:	83 ec 0c             	sub    $0xc,%esp
   10961:	68 00 00 00 80       	push   $0x80000000
   10966:	e8 e8 f9 ff ff       	call   10353 <pde_index>
   1096b:	83 c4 10             	add    $0x10,%esp
   1096e:	89 45 e0             	mov    %eax,-0x20(%ebp)
    pde_t * pde = (pde_t *)page_dir + user_pde_start;
   10971:	8b 45 e0             	mov    -0x20(%ebp),%eax
   10974:	8d 14 85 00 00 00 00 	lea    0x0(,%eax,4),%edx
   1097b:	8b 45 08             	mov    0x8(%ebp),%eax
   1097e:	01 d0                	add    %edx,%eax
   10980:	89 45 f4             	mov    %eax,-0xc(%ebp)

    // 遍历用户空间页目录项
    for (int i = user_pde_start; i < PDE_CNT; i++, pde++) {
   10983:	8b 45 e0             	mov    -0x20(%ebp),%eax
   10986:	89 45 f0             	mov    %eax,-0x10(%ebp)
   10989:	e9 d9 00 00 00       	jmp    10a67 <memory_copy_uvm+0x121>
        if (!pde->present) {
   1098e:	8b 45 f4             	mov    -0xc(%ebp),%eax
   10991:	0f b6 00             	movzbl (%eax),%eax
   10994:	83 e0 01             	and    $0x1,%eax
   10997:	84 c0                	test   %al,%al
   10999:	0f 84 bf 00 00 00    	je     10a5e <memory_copy_uvm+0x118>
            continue;
        }

        // 遍历页表
        pte_t * pte = (pte_t *)pde_paddr(pde);
   1099f:	83 ec 0c             	sub    $0xc,%esp
   109a2:	ff 75 f4             	pushl  -0xc(%ebp)
   109a5:	e8 bd f9 ff ff       	call   10367 <pde_paddr>
   109aa:	83 c4 10             	add    $0x10,%esp
   109ad:	89 45 ec             	mov    %eax,-0x14(%ebp)
        for (int j = 0; j < PTE_CNT; j++, pte++) {
   109b0:	c7 45 e8 00 00 00 00 	movl   $0x0,-0x18(%ebp)
   109b7:	e9 93 00 00 00       	jmp    10a4f <memory_copy_uvm+0x109>
            if (!pte->present) {
   109bc:	8b 45 ec             	mov    -0x14(%ebp),%eax
   109bf:	0f b6 00             	movzbl (%eax),%eax
   109c2:	83 e0 01             	and    $0x1,%eax
   109c5:	84 c0                	test   %al,%al
   109c7:	74 7d                	je     10a46 <memory_copy_uvm+0x100>
                continue;
            }

            // 分配物理内存
            uint32_t page = addr_alloc_page(&paddr_alloc, 1);
   109c9:	83 ec 08             	sub    $0x8,%esp
   109cc:	6a 01                	push   $0x1
   109ce:	68 00 b0 01 00       	push   $0x1b000
   109d3:	e8 78 fa ff ff       	call   10450 <addr_alloc_page>
   109d8:	83 c4 10             	add    $0x10,%esp
   109db:	89 45 dc             	mov    %eax,-0x24(%ebp)
            if (page == 0) {
   109de:	83 7d dc 00          	cmpl   $0x0,-0x24(%ebp)
   109e2:	0f 84 94 00 00 00    	je     10a7c <memory_copy_uvm+0x136>
                goto copy_uvm_failed;
            }

            // 建立映射关系
            uint32_t vaddr = (i << 22) | (j << 12);
   109e8:	8b 45 f0             	mov    -0x10(%ebp),%eax
   109eb:	c1 e0 16             	shl    $0x16,%eax
   109ee:	89 c2                	mov    %eax,%edx
   109f0:	8b 45 e8             	mov    -0x18(%ebp),%eax
   109f3:	c1 e0 0c             	shl    $0xc,%eax
   109f6:	09 d0                	or     %edx,%eax
   109f8:	89 45 d8             	mov    %eax,-0x28(%ebp)
            int err = memory_create_map((pde_t *)to_page_dir, vaddr, page, 1, get_pte_perm(pte));
   109fb:	83 ec 0c             	sub    $0xc,%esp
   109fe:	ff 75 ec             	pushl  -0x14(%ebp)
   10a01:	e8 bf f9 ff ff       	call   103c5 <get_pte_perm>
   10a06:	83 c4 10             	add    $0x10,%esp
   10a09:	89 c2                	mov    %eax,%edx
   10a0b:	8b 45 e4             	mov    -0x1c(%ebp),%eax
   10a0e:	83 ec 0c             	sub    $0xc,%esp
   10a11:	52                   	push   %edx
   10a12:	6a 01                	push   $0x1
   10a14:	ff 75 dc             	pushl  -0x24(%ebp)
   10a17:	ff 75 d8             	pushl  -0x28(%ebp)
   10a1a:	50                   	push   %eax
   10a1b:	e8 4b fc ff ff       	call   1066b <memory_create_map>
   10a20:	83 c4 20             	add    $0x20,%esp
   10a23:	89 45 d4             	mov    %eax,-0x2c(%ebp)
            if (err < 0) {
   10a26:	83 7d d4 00          	cmpl   $0x0,-0x2c(%ebp)
   10a2a:	78 53                	js     10a7f <memory_copy_uvm+0x139>
                goto copy_uvm_failed;
            }

            // 复制内容。
            kernel_memcpy((void *)page, (void *)vaddr, MEM_PAGE_SIZE);
   10a2c:	8b 55 d8             	mov    -0x28(%ebp),%edx
   10a2f:	8b 45 dc             	mov    -0x24(%ebp),%eax
   10a32:	83 ec 04             	sub    $0x4,%esp
   10a35:	68 00 10 00 00       	push   $0x1000
   10a3a:	52                   	push   %edx
   10a3b:	50                   	push   %eax
   10a3c:	e8 f6 79 00 00       	call   18437 <kernel_memcpy>
   10a41:	83 c4 10             	add    $0x10,%esp
   10a44:	eb 01                	jmp    10a47 <memory_copy_uvm+0x101>
                continue;
   10a46:	90                   	nop
        for (int j = 0; j < PTE_CNT; j++, pte++) {
   10a47:	83 45 e8 01          	addl   $0x1,-0x18(%ebp)
   10a4b:	83 45 ec 04          	addl   $0x4,-0x14(%ebp)
   10a4f:	81 7d e8 ff 03 00 00 	cmpl   $0x3ff,-0x18(%ebp)
   10a56:	0f 8e 60 ff ff ff    	jle    109bc <memory_copy_uvm+0x76>
   10a5c:	eb 01                	jmp    10a5f <memory_copy_uvm+0x119>
            continue;
   10a5e:	90                   	nop
    for (int i = user_pde_start; i < PDE_CNT; i++, pde++) {
   10a5f:	83 45 f0 01          	addl   $0x1,-0x10(%ebp)
   10a63:	83 45 f4 04          	addl   $0x4,-0xc(%ebp)
   10a67:	81 7d f0 ff 03 00 00 	cmpl   $0x3ff,-0x10(%ebp)
   10a6e:	0f 8e 1a ff ff ff    	jle    1098e <memory_copy_uvm+0x48>
        }
    }
    return to_page_dir;
   10a74:	8b 45 e4             	mov    -0x1c(%ebp),%eax
   10a77:	eb 20                	jmp    10a99 <memory_copy_uvm+0x153>
        goto copy_uvm_failed;
   10a79:	90                   	nop
   10a7a:	eb 04                	jmp    10a80 <memory_copy_uvm+0x13a>
                goto copy_uvm_failed;
   10a7c:	90                   	nop
   10a7d:	eb 01                	jmp    10a80 <memory_copy_uvm+0x13a>
                goto copy_uvm_failed;
   10a7f:	90                   	nop

copy_uvm_failed:
    if (to_page_dir) {
   10a80:	83 7d e4 00          	cmpl   $0x0,-0x1c(%ebp)
   10a84:	74 0e                	je     10a94 <memory_copy_uvm+0x14e>
        memory_destroy_uvm(to_page_dir);
   10a86:	83 ec 0c             	sub    $0xc,%esp
   10a89:	ff 75 e4             	pushl  -0x1c(%ebp)
   10a8c:	e8 a6 fd ff ff       	call   10837 <memory_destroy_uvm>
   10a91:	83 c4 10             	add    $0x10,%esp
    }
    return -1;
   10a94:	b8 ff ff ff ff       	mov    $0xffffffff,%eax
}
   10a99:	c9                   	leave  
   10a9a:	c3                   	ret    

00010a9b <memory_get_paddr>:

/**
 * @brief 获取指定虚拟地址的物理地址
 * 如果转换失败，返回0。
 */
uint32_t memory_get_paddr (uint32_t page_dir, uint32_t vaddr) {
   10a9b:	55                   	push   %ebp
   10a9c:	89 e5                	mov    %esp,%ebp
   10a9e:	83 ec 18             	sub    $0x18,%esp
    pte_t * pte = find_pte((pde_t *)page_dir, vaddr, 0);
   10aa1:	8b 45 08             	mov    0x8(%ebp),%eax
   10aa4:	83 ec 04             	sub    $0x4,%esp
   10aa7:	6a 00                	push   $0x0
   10aa9:	ff 75 0c             	pushl  0xc(%ebp)
   10aac:	50                   	push   %eax
   10aad:	e8 09 fb ff ff       	call   105bb <find_pte>
   10ab2:	83 c4 10             	add    $0x10,%esp
   10ab5:	89 45 f4             	mov    %eax,-0xc(%ebp)
    if (pte == (pte_t *)0) {
   10ab8:	83 7d f4 00          	cmpl   $0x0,-0xc(%ebp)
   10abc:	75 07                	jne    10ac5 <memory_get_paddr+0x2a>
        return 0;
   10abe:	b8 00 00 00 00       	mov    $0x0,%eax
   10ac3:	eb 1a                	jmp    10adf <memory_get_paddr+0x44>
    }

    return pte_paddr(pte) + (vaddr & (MEM_PAGE_SIZE - 1));
   10ac5:	83 ec 0c             	sub    $0xc,%esp
   10ac8:	ff 75 f4             	pushl  -0xc(%ebp)
   10acb:	e8 ce f8 ff ff       	call   1039e <pte_paddr>
   10ad0:	83 c4 10             	add    $0x10,%esp
   10ad3:	89 c2                	mov    %eax,%edx
   10ad5:	8b 45 0c             	mov    0xc(%ebp),%eax
   10ad8:	25 ff 0f 00 00       	and    $0xfff,%eax
   10add:	01 d0                	add    %edx,%eax
}
   10adf:	c9                   	leave  
   10ae0:	c3                   	ret    

00010ae1 <memory_copy_uvm_data>:

/**
 * @brief 在不同的进程空间中拷贝字符串
 * page_dir为目标页表，当前仍为老页表
 */
int memory_copy_uvm_data(uint32_t to, uint32_t page_dir, uint32_t from, uint32_t size) {
   10ae1:	55                   	push   %ebp
   10ae2:	89 e5                	mov    %esp,%ebp
   10ae4:	83 ec 18             	sub    $0x18,%esp
    char *buf, *pa0;

    while(size > 0){
   10ae7:	eb 6e                	jmp    10b57 <memory_copy_uvm_data+0x76>
        // 获取目标的物理地址, 也即其另一个虚拟地址
        uint32_t to_paddr = memory_get_paddr(page_dir, to);
   10ae9:	83 ec 08             	sub    $0x8,%esp
   10aec:	ff 75 08             	pushl  0x8(%ebp)
   10aef:	ff 75 0c             	pushl  0xc(%ebp)
   10af2:	e8 a4 ff ff ff       	call   10a9b <memory_get_paddr>
   10af7:	83 c4 10             	add    $0x10,%esp
   10afa:	89 45 f0             	mov    %eax,-0x10(%ebp)
        if (to_paddr == 0) {
   10afd:	83 7d f0 00          	cmpl   $0x0,-0x10(%ebp)
   10b01:	75 07                	jne    10b0a <memory_copy_uvm_data+0x29>
            return -1;
   10b03:	b8 ff ff ff ff       	mov    $0xffffffff,%eax
   10b08:	eb 58                	jmp    10b62 <memory_copy_uvm_data+0x81>
        }

        // 计算当前可拷贝的大小
        uint32_t offset_in_page = to_paddr & (MEM_PAGE_SIZE - 1);
   10b0a:	8b 45 f0             	mov    -0x10(%ebp),%eax
   10b0d:	25 ff 0f 00 00       	and    $0xfff,%eax
   10b12:	89 45 ec             	mov    %eax,-0x14(%ebp)
        uint32_t curr_size = MEM_PAGE_SIZE - offset_in_page;
   10b15:	b8 00 10 00 00       	mov    $0x1000,%eax
   10b1a:	2b 45 ec             	sub    -0x14(%ebp),%eax
   10b1d:	89 45 f4             	mov    %eax,-0xc(%ebp)
        if (curr_size > size) {
   10b20:	8b 45 f4             	mov    -0xc(%ebp),%eax
   10b23:	3b 45 14             	cmp    0x14(%ebp),%eax
   10b26:	76 06                	jbe    10b2e <memory_copy_uvm_data+0x4d>
            curr_size = size;       // 如果比较大，超过页边界，则只拷贝此页内的
   10b28:	8b 45 14             	mov    0x14(%ebp),%eax
   10b2b:	89 45 f4             	mov    %eax,-0xc(%ebp)
        }

        kernel_memcpy((void *)to_paddr, (void *)from, curr_size);
   10b2e:	8b 4d f4             	mov    -0xc(%ebp),%ecx
   10b31:	8b 55 10             	mov    0x10(%ebp),%edx
   10b34:	8b 45 f0             	mov    -0x10(%ebp),%eax
   10b37:	83 ec 04             	sub    $0x4,%esp
   10b3a:	51                   	push   %ecx
   10b3b:	52                   	push   %edx
   10b3c:	50                   	push   %eax
   10b3d:	e8 f5 78 00 00       	call   18437 <kernel_memcpy>
   10b42:	83 c4 10             	add    $0x10,%esp

        size -= curr_size;
   10b45:	8b 45 f4             	mov    -0xc(%ebp),%eax
   10b48:	29 45 14             	sub    %eax,0x14(%ebp)
        to += curr_size;
   10b4b:	8b 45 f4             	mov    -0xc(%ebp),%eax
   10b4e:	01 45 08             	add    %eax,0x8(%ebp)
        from += curr_size;
   10b51:	8b 45 f4             	mov    -0xc(%ebp),%eax
   10b54:	01 45 10             	add    %eax,0x10(%ebp)
    while(size > 0){
   10b57:	83 7d 14 00          	cmpl   $0x0,0x14(%ebp)
   10b5b:	75 8c                	jne    10ae9 <memory_copy_uvm_data+0x8>
  }

  return 0;
   10b5d:	b8 00 00 00 00       	mov    $0x0,%eax
}
   10b62:	c9                   	leave  
   10b63:	c3                   	ret    

00010b64 <memory_alloc_for_page_dir>:

uint32_t memory_alloc_for_page_dir (uint32_t page_dir, uint32_t vaddr, uint32_t size, int perm) {
   10b64:	55                   	push   %ebp
   10b65:	89 e5                	mov    %esp,%ebp
   10b67:	83 ec 28             	sub    $0x28,%esp
    uint32_t curr_vaddr = vaddr;
   10b6a:	8b 45 0c             	mov    0xc(%ebp),%eax
   10b6d:	89 45 f4             	mov    %eax,-0xc(%ebp)
    int page_count = up2(size, MEM_PAGE_SIZE) / MEM_PAGE_SIZE;
   10b70:	68 00 10 00 00       	push   $0x1000
   10b75:	ff 75 10             	pushl  0x10(%ebp)
   10b78:	e8 a6 f7 ff ff       	call   10323 <up2>
   10b7d:	83 c4 08             	add    $0x8,%esp
   10b80:	c1 e8 0c             	shr    $0xc,%eax
   10b83:	89 45 ec             	mov    %eax,-0x14(%ebp)
    vaddr = down2(vaddr, MEM_PAGE_SIZE);
   10b86:	68 00 10 00 00       	push   $0x1000
   10b8b:	ff 75 0c             	pushl  0xc(%ebp)
   10b8e:	e8 a7 f7 ff ff       	call   1033a <down2>
   10b93:	83 c4 08             	add    $0x8,%esp
   10b96:	89 45 0c             	mov    %eax,0xc(%ebp)

    // 逐页分配内存，然后建立映射关系
    for (int i = 0; i < page_count; i++) {
   10b99:	c7 45 f0 00 00 00 00 	movl   $0x0,-0x10(%ebp)
   10ba0:	e9 95 00 00 00       	jmp    10c3a <memory_alloc_for_page_dir+0xd6>
        // 分配需要的内存
        uint32_t paddr = addr_alloc_page(&paddr_alloc, 1);
   10ba5:	83 ec 08             	sub    $0x8,%esp
   10ba8:	6a 01                	push   $0x1
   10baa:	68 00 b0 01 00       	push   $0x1b000
   10baf:	e8 9c f8 ff ff       	call   10450 <addr_alloc_page>
   10bb4:	83 c4 10             	add    $0x10,%esp
   10bb7:	89 45 e8             	mov    %eax,-0x18(%ebp)
        if (paddr == 0) {
   10bba:	83 7d e8 00          	cmpl   $0x0,-0x18(%ebp)
   10bbe:	75 17                	jne    10bd7 <memory_alloc_for_page_dir+0x73>
            log_printf("mem alloc failed. no memory");
   10bc0:	83 ec 0c             	sub    $0xc,%esp
   10bc3:	68 75 8b 01 00       	push   $0x18b75
   10bc8:	e8 63 7e 00 00       	call   18a30 <log_printf>
   10bcd:	83 c4 10             	add    $0x10,%esp
            return 0;
   10bd0:	b8 00 00 00 00       	mov    $0x0,%eax
   10bd5:	eb 74                	jmp    10c4b <memory_alloc_for_page_dir+0xe7>
        }

        // 建立分配的内存与指定地址的关联
        int err = memory_create_map((pde_t *)page_dir, curr_vaddr, paddr, 1, perm);
   10bd7:	8b 55 14             	mov    0x14(%ebp),%edx
   10bda:	8b 45 08             	mov    0x8(%ebp),%eax
   10bdd:	83 ec 0c             	sub    $0xc,%esp
   10be0:	52                   	push   %edx
   10be1:	6a 01                	push   $0x1
   10be3:	ff 75 e8             	pushl  -0x18(%ebp)
   10be6:	ff 75 f4             	pushl  -0xc(%ebp)
   10be9:	50                   	push   %eax
   10bea:	e8 7c fa ff ff       	call   1066b <memory_create_map>
   10bef:	83 c4 20             	add    $0x20,%esp
   10bf2:	89 45 e4             	mov    %eax,-0x1c(%ebp)
        if (err < 0) {
   10bf5:	83 7d e4 00          	cmpl   $0x0,-0x1c(%ebp)
   10bf9:	79 34                	jns    10c2f <memory_alloc_for_page_dir+0xcb>
            log_printf("create memory map failed. err = %d", err);
   10bfb:	83 ec 08             	sub    $0x8,%esp
   10bfe:	ff 75 e4             	pushl  -0x1c(%ebp)
   10c01:	68 94 8b 01 00       	push   $0x18b94
   10c06:	e8 25 7e 00 00       	call   18a30 <log_printf>
   10c0b:	83 c4 10             	add    $0x10,%esp
            addr_free_page(&paddr_alloc, vaddr, i + 1);
   10c0e:	8b 45 f0             	mov    -0x10(%ebp),%eax
   10c11:	83 c0 01             	add    $0x1,%eax
   10c14:	83 ec 04             	sub    $0x4,%esp
   10c17:	50                   	push   %eax
   10c18:	ff 75 0c             	pushl  0xc(%ebp)
   10c1b:	68 00 b0 01 00       	push   $0x1b000
   10c20:	e8 92 f8 ff ff       	call   104b7 <addr_free_page>
   10c25:	83 c4 10             	add    $0x10,%esp
            return -1;
   10c28:	b8 ff ff ff ff       	mov    $0xffffffff,%eax
   10c2d:	eb 1c                	jmp    10c4b <memory_alloc_for_page_dir+0xe7>
        }

        curr_vaddr += MEM_PAGE_SIZE;
   10c2f:	81 45 f4 00 10 00 00 	addl   $0x1000,-0xc(%ebp)
    for (int i = 0; i < page_count; i++) {
   10c36:	83 45 f0 01          	addl   $0x1,-0x10(%ebp)
   10c3a:	8b 45 f0             	mov    -0x10(%ebp),%eax
   10c3d:	3b 45 ec             	cmp    -0x14(%ebp),%eax
   10c40:	0f 8c 5f ff ff ff    	jl     10ba5 <memory_alloc_for_page_dir+0x41>
    }

    return 0;
   10c46:	b8 00 00 00 00       	mov    $0x0,%eax
}
   10c4b:	c9                   	leave  
   10c4c:	c3                   	ret    

00010c4d <memory_alloc_page_for>:

/**
 * @brief 为指定的虚拟地址空间分配多页内存
 */
int memory_alloc_page_for (uint32_t addr, uint32_t size, int perm) {
   10c4d:	55                   	push   %ebp
   10c4e:	89 e5                	mov    %esp,%ebp
   10c50:	83 ec 08             	sub    $0x8,%esp
    return memory_alloc_for_page_dir(task_current()->tss.cr3, addr, size, perm);
   10c53:	e8 b5 0a 00 00       	call   1170d <task_current>
   10c58:	8b 80 60 02 00 00    	mov    0x260(%eax),%eax
   10c5e:	ff 75 10             	pushl  0x10(%ebp)
   10c61:	ff 75 0c             	pushl  0xc(%ebp)
   10c64:	ff 75 08             	pushl  0x8(%ebp)
   10c67:	50                   	push   %eax
   10c68:	e8 f7 fe ff ff       	call   10b64 <memory_alloc_for_page_dir>
   10c6d:	83 c4 10             	add    $0x10,%esp
}
   10c70:	c9                   	leave  
   10c71:	c3                   	ret    

00010c72 <memory_alloc_page>:

/**
 * @brief 分配一页内存
 * 主要用于内核空间内存的分配，不用于进程内存空间
 */
uint32_t memory_alloc_page (void) {
   10c72:	55                   	push   %ebp
   10c73:	89 e5                	mov    %esp,%ebp
   10c75:	83 ec 08             	sub    $0x8,%esp
    // 内核空间虚拟地址与物理地址相同
    return addr_alloc_page(&paddr_alloc, 1);
   10c78:	83 ec 08             	sub    $0x8,%esp
   10c7b:	6a 01                	push   $0x1
   10c7d:	68 00 b0 01 00       	push   $0x1b000
   10c82:	e8 c9 f7 ff ff       	call   10450 <addr_alloc_page>
   10c87:	83 c4 10             	add    $0x10,%esp
}
   10c8a:	c9                   	leave  
   10c8b:	c3                   	ret    

00010c8c <memory_free_page>:

/**
 * @brief 释放一页内存
 */
void memory_free_page (uint32_t addr) {
   10c8c:	55                   	push   %ebp
   10c8d:	89 e5                	mov    %esp,%ebp
   10c8f:	83 ec 18             	sub    $0x18,%esp
    if (addr < MEMORY_TASK_BASE) {
   10c92:	8b 45 08             	mov    0x8(%ebp),%eax
   10c95:	85 c0                	test   %eax,%eax
   10c97:	78 17                	js     10cb0 <memory_free_page+0x24>
        // 内核空间，直接释放
        addr_free_page(&paddr_alloc, addr, 1);
   10c99:	83 ec 04             	sub    $0x4,%esp
   10c9c:	6a 01                	push   $0x1
   10c9e:	ff 75 08             	pushl  0x8(%ebp)
   10ca1:	68 00 b0 01 00       	push   $0x1b000
   10ca6:	e8 0c f8 ff ff       	call   104b7 <addr_free_page>
   10cab:	83 c4 10             	add    $0x10,%esp
        addr_free_page(&paddr_alloc, pte_paddr(pte), 1);

        // 释放页表
        pte->v = 0;
    }
}
   10cae:	eb 72                	jmp    10d22 <memory_free_page+0x96>
        pte_t * pte = find_pte(current_page_dir(), addr, 0);
   10cb0:	e8 30 f7 ff ff       	call   103e5 <current_page_dir>
   10cb5:	83 ec 04             	sub    $0x4,%esp
   10cb8:	6a 00                	push   $0x0
   10cba:	ff 75 08             	pushl  0x8(%ebp)
   10cbd:	50                   	push   %eax
   10cbe:	e8 f8 f8 ff ff       	call   105bb <find_pte>
   10cc3:	83 c4 10             	add    $0x10,%esp
   10cc6:	89 45 f4             	mov    %eax,-0xc(%ebp)
        ASSERT((pte == (pte_t *)0) && pte->present);
   10cc9:	83 7d f4 00          	cmpl   $0x0,-0xc(%ebp)
   10ccd:	75 0d                	jne    10cdc <memory_free_page+0x50>
   10ccf:	8b 45 f4             	mov    -0xc(%ebp),%eax
   10cd2:	0f b6 00             	movzbl (%eax),%eax
   10cd5:	83 e0 01             	and    $0x1,%eax
   10cd8:	84 c0                	test   %al,%al
   10cda:	75 1c                	jne    10cf8 <memory_free_page+0x6c>
   10cdc:	68 b8 8b 01 00       	push   $0x18bb8
   10ce1:	68 88 8c 01 00       	push   $0x18c88
   10ce6:	68 83 01 00 00       	push   $0x183
   10ceb:	68 34 8b 01 00       	push   $0x18b34
   10cf0:	e8 de 7a 00 00       	call   187d3 <panic>
   10cf5:	83 c4 10             	add    $0x10,%esp
        addr_free_page(&paddr_alloc, pte_paddr(pte), 1);
   10cf8:	83 ec 0c             	sub    $0xc,%esp
   10cfb:	ff 75 f4             	pushl  -0xc(%ebp)
   10cfe:	e8 9b f6 ff ff       	call   1039e <pte_paddr>
   10d03:	83 c4 10             	add    $0x10,%esp
   10d06:	83 ec 04             	sub    $0x4,%esp
   10d09:	6a 01                	push   $0x1
   10d0b:	50                   	push   %eax
   10d0c:	68 00 b0 01 00       	push   $0x1b000
   10d11:	e8 a1 f7 ff ff       	call   104b7 <addr_free_page>
   10d16:	83 c4 10             	add    $0x10,%esp
        pte->v = 0;
   10d19:	8b 45 f4             	mov    -0xc(%ebp),%eax
   10d1c:	c7 00 00 00 00 00    	movl   $0x0,(%eax)
}
   10d22:	90                   	nop
   10d23:	c9                   	leave  
   10d24:	c3                   	ret    

00010d25 <memory_init>:
 * @brief 初始化内存管理系统
 * 该函数的主要任务：
 * 1、初始化物理内存分配器：将所有物理内存管理起来. 在1MB内存中分配物理位图
 * 2、重新创建内核页表：原loader中创建的页表已经不再合适
 */
void memory_init (boot_info_t * boot_info) {
   10d25:	55                   	push   %ebp
   10d26:	89 e5                	mov    %esp,%ebp
   10d28:	83 ec 18             	sub    $0x18,%esp
    // 1MB内存空间起始，在链接脚本中定义
    extern uint8_t * mem_free_start;

    log_printf("mem init.");
   10d2b:	83 ec 0c             	sub    $0xc,%esp
   10d2e:	68 dc 8b 01 00       	push   $0x18bdc
   10d33:	e8 f8 7c 00 00       	call   18a30 <log_printf>
   10d38:	83 c4 10             	add    $0x10,%esp
    show_mem_info(boot_info);
   10d3b:	83 ec 0c             	sub    $0xc,%esp
   10d3e:	ff 75 08             	pushl  0x8(%ebp)
   10d41:	e8 d3 f7 ff ff       	call   10519 <show_mem_info>
   10d46:	83 c4 10             	add    $0x10,%esp

    // 在内核数据后面放物理页位图
    uint8_t * mem_free = (uint8_t *)mem_free_start;
   10d49:	a1 47 04 06 00       	mov    0x60447,%eax
   10d4e:	89 45 f4             	mov    %eax,-0xc(%ebp)

    // 计算1MB以上空间的空闲内存容量，并对齐的页边界
    uint32_t mem_up1MB_free = total_mem_size(boot_info) - MEM_EXT_START;
   10d51:	83 ec 0c             	sub    $0xc,%esp
   10d54:	ff 75 08             	pushl  0x8(%ebp)
   10d57:	e8 23 f8 ff ff       	call   1057f <total_mem_size>
   10d5c:	83 c4 10             	add    $0x10,%esp
   10d5f:	2d 00 00 10 00       	sub    $0x100000,%eax
   10d64:	89 45 f0             	mov    %eax,-0x10(%ebp)
    mem_up1MB_free = down2(mem_up1MB_free, MEM_PAGE_SIZE);   // 对齐到4KB页
   10d67:	83 ec 08             	sub    $0x8,%esp
   10d6a:	68 00 10 00 00       	push   $0x1000
   10d6f:	ff 75 f0             	pushl  -0x10(%ebp)
   10d72:	e8 c3 f5 ff ff       	call   1033a <down2>
   10d77:	83 c4 10             	add    $0x10,%esp
   10d7a:	89 45 f0             	mov    %eax,-0x10(%ebp)
    log_printf("Free memory: 0x%x, size: 0x%x", MEM_EXT_START, mem_up1MB_free);
   10d7d:	83 ec 04             	sub    $0x4,%esp
   10d80:	ff 75 f0             	pushl  -0x10(%ebp)
   10d83:	68 00 00 10 00       	push   $0x100000
   10d88:	68 e6 8b 01 00       	push   $0x18be6
   10d8d:	e8 9e 7c 00 00       	call   18a30 <log_printf>
   10d92:	83 c4 10             	add    $0x10,%esp

    // 4GB大小需要总共4*1024*1024*1024/4096/8=128KB的位图, 使用低1MB的RAM空间中足够
    // 该部分的内存仅跟在mem_free_start开始放置
    addr_alloc_init(&paddr_alloc, mem_free, MEM_EXT_START, mem_up1MB_free, MEM_PAGE_SIZE);
   10d95:	83 ec 0c             	sub    $0xc,%esp
   10d98:	68 00 10 00 00       	push   $0x1000
   10d9d:	ff 75 f0             	pushl  -0x10(%ebp)
   10da0:	68 00 00 10 00       	push   $0x100000
   10da5:	ff 75 f4             	pushl  -0xc(%ebp)
   10da8:	68 00 b0 01 00       	push   $0x1b000
   10dad:	e8 46 f6 ff ff       	call   103f8 <addr_alloc_init>
   10db2:	83 c4 20             	add    $0x20,%esp
    mem_free += bitmap_byte_count(paddr_alloc.size / MEM_PAGE_SIZE);
   10db5:	a1 24 b0 01 00       	mov    0x1b024,%eax
   10dba:	c1 e8 0c             	shr    $0xc,%eax
   10dbd:	83 ec 0c             	sub    $0xc,%esp
   10dc0:	50                   	push   %eax
   10dc1:	e8 42 72 00 00       	call   18008 <bitmap_byte_count>
   10dc6:	83 c4 10             	add    $0x10,%esp
   10dc9:	01 45 f4             	add    %eax,-0xc(%ebp)

    // 到这里，mem_free应该比EBDA地址要小
    ASSERT(mem_free < (uint8_t *)MEM_EBDA_START);
   10dcc:	81 7d f4 ff ff 07 00 	cmpl   $0x7ffff,-0xc(%ebp)
   10dd3:	76 1c                	jbe    10df1 <memory_init+0xcc>
   10dd5:	68 04 8c 01 00       	push   $0x18c04
   10dda:	68 9c 8c 01 00       	push   $0x18c9c
   10ddf:	68 a8 01 00 00       	push   $0x1a8
   10de4:	68 34 8b 01 00       	push   $0x18b34
   10de9:	e8 e5 79 00 00       	call   187d3 <panic>
   10dee:	83 c4 10             	add    $0x10,%esp

    // 创建内核页表并切换过去
    create_kernel_table();
   10df1:	e8 01 f9 ff ff       	call   106f7 <create_kernel_table>

    // 先切换到当前页表
    mmu_set_page_dir((uint32_t)kernel_page_dir);
   10df6:	b8 00 c0 01 00       	mov    $0x1c000,%eax
   10dfb:	83 ec 0c             	sub    $0xc,%esp
   10dfe:	50                   	push   %eax
   10dff:	e8 d0 f5 ff ff       	call   103d4 <mmu_set_page_dir>
   10e04:	83 c4 10             	add    $0x10,%esp
}
   10e07:	90                   	nop
   10e08:	c9                   	leave  
   10e09:	c3                   	ret    

00010e0a <sys_sbrk>:

/**
 * @brief 调整堆的内存分配，返回堆之前的指针
 */
char * sys_sbrk(int incr) {
   10e0a:	55                   	push   %ebp
   10e0b:	89 e5                	mov    %esp,%ebp
   10e0d:	83 ec 38             	sub    $0x38,%esp
    task_t * task = task_current();
   10e10:	e8 f8 08 00 00       	call   1170d <task_current>
   10e15:	89 45 f0             	mov    %eax,-0x10(%ebp)
    char * pre_heap_end = (char * )task->heap_end;
   10e18:	8b 45 f0             	mov    -0x10(%ebp),%eax
   10e1b:	8b 40 30             	mov    0x30(%eax),%eax
   10e1e:	89 45 ec             	mov    %eax,-0x14(%ebp)
    int pre_incr = incr;
   10e21:	8b 45 08             	mov    0x8(%ebp),%eax
   10e24:	89 45 e8             	mov    %eax,-0x18(%ebp)

    ASSERT(incr >= 0);
   10e27:	83 7d 08 00          	cmpl   $0x0,0x8(%ebp)
   10e2b:	79 1c                	jns    10e49 <sys_sbrk+0x3f>
   10e2d:	68 29 8c 01 00       	push   $0x18c29
   10e32:	68 a8 8c 01 00       	push   $0x18ca8
   10e37:	68 b9 01 00 00       	push   $0x1b9
   10e3c:	68 34 8b 01 00       	push   $0x18b34
   10e41:	e8 8d 79 00 00       	call   187d3 <panic>
   10e46:	83 c4 10             	add    $0x10,%esp

    // 如果地址为0，则返回有效的heap区域的顶端
    if (incr == 0) {
   10e49:	83 7d 08 00          	cmpl   $0x0,0x8(%ebp)
   10e4d:	75 1b                	jne    10e6a <sys_sbrk+0x60>
        log_printf("sbrk(0): end = 0x%x", pre_heap_end);
   10e4f:	83 ec 08             	sub    $0x8,%esp
   10e52:	ff 75 ec             	pushl  -0x14(%ebp)
   10e55:	68 33 8c 01 00       	push   $0x18c33
   10e5a:	e8 d1 7b 00 00       	call   18a30 <log_printf>
   10e5f:	83 c4 10             	add    $0x10,%esp
        return pre_heap_end;
   10e62:	8b 45 ec             	mov    -0x14(%ebp),%eax
   10e65:	e9 aa 00 00 00       	jmp    10f14 <sys_sbrk+0x10a>
    } 
    
    uint32_t start = task->heap_end;
   10e6a:	8b 45 f0             	mov    -0x10(%ebp),%eax
   10e6d:	8b 40 30             	mov    0x30(%eax),%eax
   10e70:	89 45 f4             	mov    %eax,-0xc(%ebp)
    uint32_t end = start + incr;
   10e73:	8b 55 08             	mov    0x8(%ebp),%edx
   10e76:	8b 45 f4             	mov    -0xc(%ebp),%eax
   10e79:	01 d0                	add    %edx,%eax
   10e7b:	89 45 e4             	mov    %eax,-0x1c(%ebp)

    // 起始偏移非0
    int start_offset = start % MEM_PAGE_SIZE;
   10e7e:	8b 45 f4             	mov    -0xc(%ebp),%eax
   10e81:	25 ff 0f 00 00       	and    $0xfff,%eax
   10e86:	89 45 e0             	mov    %eax,-0x20(%ebp)
    if (start_offset) {
   10e89:	83 7d e0 00          	cmpl   $0x0,-0x20(%ebp)
   10e8d:	74 37                	je     10ec6 <sys_sbrk+0xbc>
        // 不超过1页，只调整
        if (start_offset + incr <= MEM_PAGE_SIZE) {
   10e8f:	8b 55 e0             	mov    -0x20(%ebp),%edx
   10e92:	8b 45 08             	mov    0x8(%ebp),%eax
   10e95:	01 d0                	add    %edx,%eax
   10e97:	3d 00 10 00 00       	cmp    $0x1000,%eax
   10e9c:	7f 0e                	jg     10eac <sys_sbrk+0xa2>
            task->heap_end = end;
   10e9e:	8b 45 f0             	mov    -0x10(%ebp),%eax
   10ea1:	8b 55 e4             	mov    -0x1c(%ebp),%edx
   10ea4:	89 50 30             	mov    %edx,0x30(%eax)
            return pre_heap_end;
   10ea7:	8b 45 ec             	mov    -0x14(%ebp),%eax
   10eaa:	eb 68                	jmp    10f14 <sys_sbrk+0x10a>
        } else {
            // 超过1页，先只调本页的
            uint32_t curr_size = MEM_PAGE_SIZE - start_offset;
   10eac:	b8 00 10 00 00       	mov    $0x1000,%eax
   10eb1:	2b 45 e0             	sub    -0x20(%ebp),%eax
   10eb4:	89 45 dc             	mov    %eax,-0x24(%ebp)
            start += curr_size;
   10eb7:	8b 45 dc             	mov    -0x24(%ebp),%eax
   10eba:	01 45 f4             	add    %eax,-0xc(%ebp)
            incr -= curr_size;
   10ebd:	8b 45 08             	mov    0x8(%ebp),%eax
   10ec0:	2b 45 dc             	sub    -0x24(%ebp),%eax
   10ec3:	89 45 08             	mov    %eax,0x8(%ebp)
        }
    }

    // 处理其余的，起始对齐的页边界的
    if (incr) {
   10ec6:	83 7d 08 00          	cmpl   $0x0,0x8(%ebp)
   10eca:	74 3c                	je     10f08 <sys_sbrk+0xfe>
        uint32_t curr_size = end - start;
   10ecc:	8b 45 e4             	mov    -0x1c(%ebp),%eax
   10ecf:	2b 45 f4             	sub    -0xc(%ebp),%eax
   10ed2:	89 45 d8             	mov    %eax,-0x28(%ebp)
        int err = memory_alloc_page_for(start, curr_size, PTE_P | PTE_U | PTE_W);
   10ed5:	83 ec 04             	sub    $0x4,%esp
   10ed8:	6a 07                	push   $0x7
   10eda:	ff 75 d8             	pushl  -0x28(%ebp)
   10edd:	ff 75 f4             	pushl  -0xc(%ebp)
   10ee0:	e8 68 fd ff ff       	call   10c4d <memory_alloc_page_for>
   10ee5:	83 c4 10             	add    $0x10,%esp
   10ee8:	89 45 d4             	mov    %eax,-0x2c(%ebp)
        if (err < 0) {
   10eeb:	83 7d d4 00          	cmpl   $0x0,-0x2c(%ebp)
   10eef:	79 17                	jns    10f08 <sys_sbrk+0xfe>
            log_printf("sbrk: alloc mem failed.");
   10ef1:	83 ec 0c             	sub    $0xc,%esp
   10ef4:	68 47 8c 01 00       	push   $0x18c47
   10ef9:	e8 32 7b 00 00       	call   18a30 <log_printf>
   10efe:	83 c4 10             	add    $0x10,%esp
            return (char *)-1;
   10f01:	b8 ff ff ff ff       	mov    $0xffffffff,%eax
   10f06:	eb 0c                	jmp    10f14 <sys_sbrk+0x10a>
        }
    }

    //log_printf("sbrk(%d): end = 0x%x", pre_incr, end);
    task->heap_end = end;
   10f08:	8b 45 f0             	mov    -0x10(%ebp),%eax
   10f0b:	8b 55 e4             	mov    -0x1c(%ebp),%edx
   10f0e:	89 50 30             	mov    %edx,0x30(%eax)
    return (char * )pre_heap_end;        
   10f11:	8b 45 ec             	mov    -0x14(%ebp),%eax
}
   10f14:	c9                   	leave  
   10f15:	c3                   	ret    

00010f16 <sys_print_msg>:
#include "fs/fs.h"

// 系统调用处理函数类型
typedef int (*syscall_handler_t)(uint32_t arg0, uint32_t arg1, uint32_t arg2, uint32_t arg3);

int sys_print_msg (char * fmt, int arg) {
   10f16:	55                   	push   %ebp
   10f17:	89 e5                	mov    %esp,%ebp
   10f19:	83 ec 08             	sub    $0x8,%esp
	log_printf(fmt, arg);
   10f1c:	83 ec 08             	sub    $0x8,%esp
   10f1f:	ff 75 0c             	pushl  0xc(%ebp)
   10f22:	ff 75 08             	pushl  0x8(%ebp)
   10f25:	e8 06 7b 00 00       	call   18a30 <log_printf>
   10f2a:	83 c4 10             	add    $0x10,%esp
}
   10f2d:	90                   	nop
   10f2e:	c9                   	leave  
   10f2f:	c3                   	ret    

00010f30 <do_handler_syscall>:
};

/**
 * 处理系统调用。该函数由系统调用函数调用
 */
void do_handler_syscall (syscall_frame_t * frame) {
   10f30:	55                   	push   %ebp
   10f31:	89 e5                	mov    %esp,%ebp
   10f33:	53                   	push   %ebx
   10f34:	83 ec 14             	sub    $0x14,%esp
	// 超出边界，返回错误
    if (frame->func_id < sizeof(sys_table) / sizeof(sys_table[0])) {
   10f37:	8b 45 08             	mov    0x8(%ebp),%eax
   10f3a:	8b 40 3c             	mov    0x3c(%eax),%eax
   10f3d:	83 f8 64             	cmp    $0x64,%eax
   10f40:	77 4e                	ja     10f90 <do_handler_syscall+0x60>
		// 查表取得处理函数，然后调用处理
		syscall_handler_t handler = sys_table[frame->func_id];
   10f42:	8b 45 08             	mov    0x8(%ebp),%eax
   10f45:	8b 40 3c             	mov    0x3c(%eax),%eax
   10f48:	8b 04 85 c0 8c 01 00 	mov    0x18cc0(,%eax,4),%eax
   10f4f:	89 45 f4             	mov    %eax,-0xc(%ebp)
		if (handler) {
   10f52:	83 7d f4 00          	cmpl   $0x0,-0xc(%ebp)
   10f56:	74 38                	je     10f90 <do_handler_syscall+0x60>
			int ret = handler(frame->arg0, frame->arg1, frame->arg2, frame->arg3);
   10f58:	8b 45 08             	mov    0x8(%ebp),%eax
   10f5b:	8b 40 4c             	mov    0x4c(%eax),%eax
   10f5e:	89 c3                	mov    %eax,%ebx
   10f60:	8b 45 08             	mov    0x8(%ebp),%eax
   10f63:	8b 40 48             	mov    0x48(%eax),%eax
   10f66:	89 c1                	mov    %eax,%ecx
   10f68:	8b 45 08             	mov    0x8(%ebp),%eax
   10f6b:	8b 40 44             	mov    0x44(%eax),%eax
   10f6e:	89 c2                	mov    %eax,%edx
   10f70:	8b 45 08             	mov    0x8(%ebp),%eax
   10f73:	8b 40 40             	mov    0x40(%eax),%eax
   10f76:	53                   	push   %ebx
   10f77:	51                   	push   %ecx
   10f78:	52                   	push   %edx
   10f79:	50                   	push   %eax
   10f7a:	8b 45 f4             	mov    -0xc(%ebp),%eax
   10f7d:	ff d0                	call   *%eax
   10f7f:	83 c4 10             	add    $0x10,%esp
   10f82:	89 45 f0             	mov    %eax,-0x10(%ebp)
			frame->eax = ret;  // 设置系统调用的返回值，由eax传递
   10f85:	8b 45 08             	mov    0x8(%ebp),%eax
   10f88:	8b 55 f0             	mov    -0x10(%ebp),%edx
   10f8b:	89 50 30             	mov    %edx,0x30(%eax)
            return;
   10f8e:	eb 30                	jmp    10fc0 <do_handler_syscall+0x90>
		}
	}

	// 不支持的系统调用，打印出错信息
	task_t * task = task_current();
   10f90:	e8 78 07 00 00       	call   1170d <task_current>
   10f95:	89 45 ec             	mov    %eax,-0x14(%ebp)
	log_printf("task: %s, Unknown syscall: %d", task->name,  frame->func_id);
   10f98:	8b 45 08             	mov    0x8(%ebp),%eax
   10f9b:	8b 40 3c             	mov    0x3c(%eax),%eax
   10f9e:	8b 55 ec             	mov    -0x14(%ebp),%edx
   10fa1:	83 c2 04             	add    $0x4,%edx
   10fa4:	83 ec 04             	sub    $0x4,%esp
   10fa7:	50                   	push   %eax
   10fa8:	52                   	push   %edx
   10fa9:	68 54 8e 01 00       	push   $0x18e54
   10fae:	e8 7d 7a 00 00       	call   18a30 <log_printf>
   10fb3:	83 c4 10             	add    $0x10,%esp
    frame->eax = -1;  // 设置系统调用的返回值，由eax传递
   10fb6:	8b 45 08             	mov    0x8(%ebp),%eax
   10fb9:	c7 40 30 ff ff ff ff 	movl   $0xffffffff,0x30(%eax)
}
   10fc0:	8b 5d fc             	mov    -0x4(%ebp),%ebx
   10fc3:	c9                   	leave  
   10fc4:	c3                   	ret    

00010fc5 <write_cr3>:
static inline void write_cr3(uint32_t v) {
   10fc5:	55                   	push   %ebp
   10fc6:	89 e5                	mov    %esp,%ebp
    __asm__ __volatile__("mov %[v], %%cr3"::[v]"r"(v));
   10fc8:	8b 45 08             	mov    0x8(%ebp),%eax
   10fcb:	0f 22 d8             	mov    %eax,%cr3
}
   10fce:	90                   	nop
   10fcf:	5d                   	pop    %ebp
   10fd0:	c3                   	ret    

00010fd1 <hlt>:
	idt.limit = size - 1;

	__asm__ __volatile__("lidt %0"::"m"(idt));
}

static inline void hlt(void) {
   10fd1:	55                   	push   %ebp
   10fd2:	89 e5                	mov    %esp,%ebp
    __asm__ __volatile__("hlt");
   10fd4:	f4                   	hlt    
}
   10fd5:	90                   	nop
   10fd6:	5d                   	pop    %ebp
   10fd7:	c3                   	ret    

00010fd8 <write_tr>:

static inline void write_tr (uint32_t tss_selector) {
   10fd8:	55                   	push   %ebp
   10fd9:	89 e5                	mov    %esp,%ebp
    __asm__ __volatile__("ltr %%ax"::"a"(tss_selector));
   10fdb:	8b 45 08             	mov    0x8(%ebp),%eax
   10fde:	0f 00 d8             	ltr    %ax
}
   10fe1:	90                   	nop
   10fe2:	5d                   	pop    %ebp
   10fe3:	c3                   	ret    

00010fe4 <list_node_init>:

/**
 * 头结点的初始化
 * @param node 待初始化的结果
 */
static inline void list_node_init(list_node_t *node) {
   10fe4:	55                   	push   %ebp
   10fe5:	89 e5                	mov    %esp,%ebp
    node->pre = node->next = (list_node_t *)0;
   10fe7:	8b 45 08             	mov    0x8(%ebp),%eax
   10fea:	c7 40 04 00 00 00 00 	movl   $0x0,0x4(%eax)
   10ff1:	8b 45 08             	mov    0x8(%ebp),%eax
   10ff4:	8b 50 04             	mov    0x4(%eax),%edx
   10ff7:	8b 45 08             	mov    0x8(%ebp),%eax
   10ffa:	89 10                	mov    %edx,(%eax)
}
   10ffc:	90                   	nop
   10ffd:	5d                   	pop    %ebp
   10ffe:	c3                   	ret    

00010fff <list_node_next>:
/**
 * 获取结点的前一结点
 * @param node 查询的结点
 * @return 后继结点
 */
static inline list_node_t * list_node_next(list_node_t *node) {
   10fff:	55                   	push   %ebp
   11000:	89 e5                	mov    %esp,%ebp
    return node->next;
   11002:	8b 45 08             	mov    0x8(%ebp),%eax
   11005:	8b 40 04             	mov    0x4(%eax),%eax
}
   11008:	5d                   	pop    %ebp
   11009:	c3                   	ret    

0001100a <list_count>:
/**
 * 获取链表的结点数量
 * @param list 查询的链表
 * @return 结果的数据
 */
static inline int list_count(list_t *list) {
   1100a:	55                   	push   %ebp
   1100b:	89 e5                	mov    %esp,%ebp
    return list->count;
   1100d:	8b 45 08             	mov    0x8(%ebp),%eax
   11010:	8b 40 08             	mov    0x8(%eax),%eax
}
   11013:	5d                   	pop    %ebp
   11014:	c3                   	ret    

00011015 <list_first>:
/**
 * 获取指定链表的第一个表项
 * @param list 查询的链表
 * @return 第一个表项
 */
static inline list_node_t* list_first(list_t *list) {
   11015:	55                   	push   %ebp
   11016:	89 e5                	mov    %esp,%ebp
    return list->first;
   11018:	8b 45 08             	mov    0x8(%ebp),%eax
   1101b:	8b 00                	mov    (%eax),%eax
}
   1101d:	5d                   	pop    %ebp
   1101e:	c3                   	ret    

0001101f <mmu_set_page_dir>:
static inline void mmu_set_page_dir (uint32_t paddr) {
   1101f:	55                   	push   %ebp
   11020:	89 e5                	mov    %esp,%ebp
    write_cr3(paddr);
   11022:	ff 75 08             	pushl  0x8(%ebp)
   11025:	e8 9b ff ff ff       	call   10fc5 <write_cr3>
   1102a:	83 c4 04             	add    $0x4,%esp
}
   1102d:	90                   	nop
   1102e:	c9                   	leave  
   1102f:	c3                   	ret    

00011030 <tss_init>:
static task_manager_t task_manager;     // 任务管理器
static uint32_t idle_task_stack[IDLE_STACK_SIZE];	// 空闲任务堆栈
static task_t task_table[TASK_NR];      // 用户进程表
static mutex_t task_table_mutex;        // 进程表互斥访问锁

static int tss_init (task_t * task, int flag, uint32_t entry, uint32_t esp) {
   11030:	55                   	push   %ebp
   11031:	89 e5                	mov    %esp,%ebp
   11033:	83 ec 28             	sub    $0x28,%esp
    // 为TSS分配GDT
    int tss_sel = gdt_alloc_desc();
   11036:	e8 fb 15 00 00       	call   12636 <gdt_alloc_desc>
   1103b:	89 45 ec             	mov    %eax,-0x14(%ebp)
    if (tss_sel < 0) {
   1103e:	83 7d ec 00          	cmpl   $0x0,-0x14(%ebp)
   11042:	79 1a                	jns    1105e <tss_init+0x2e>
        log_printf("alloc tss failed.\n");
   11044:	83 ec 0c             	sub    $0xc,%esp
   11047:	68 74 8e 01 00       	push   $0x18e74
   1104c:	e8 df 79 00 00       	call   18a30 <log_printf>
   11051:	83 c4 10             	add    $0x10,%esp
        return -1;
   11054:	b8 ff ff ff ff       	mov    $0xffffffff,%eax
   11059:	e9 9d 01 00 00       	jmp    111fb <tss_init+0x1cb>
    }

    segment_desc_set(tss_sel, (uint32_t)&task->tss, sizeof(tss_t),
   1105e:	8b 45 08             	mov    0x8(%ebp),%eax
   11061:	05 44 02 00 00       	add    $0x244,%eax
   11066:	68 89 00 00 00       	push   $0x89
   1106b:	6a 68                	push   $0x68
   1106d:	50                   	push   %eax
   1106e:	ff 75 ec             	pushl  -0x14(%ebp)
   11071:	e8 ba 14 00 00       	call   12530 <segment_desc_set>
   11076:	83 c4 10             	add    $0x10,%esp
            SEG_P_PRESENT | SEG_DPL0 | SEG_TYPE_TSS);

    // tss段初始化
    kernel_memset(&task->tss, 0, sizeof(tss_t));
   11079:	8b 45 08             	mov    0x8(%ebp),%eax
   1107c:	05 44 02 00 00       	add    $0x244,%eax
   11081:	83 ec 04             	sub    $0x4,%esp
   11084:	6a 68                	push   $0x68
   11086:	6a 00                	push   $0x0
   11088:	50                   	push   %eax
   11089:	e8 f8 73 00 00       	call   18486 <kernel_memset>
   1108e:	83 c4 10             	add    $0x10,%esp

    // 分配内核栈，得到的是物理地址
    uint32_t kernel_stack = memory_alloc_page();
   11091:	e8 dc fb ff ff       	call   10c72 <memory_alloc_page>
   11096:	89 45 e8             	mov    %eax,-0x18(%ebp)
    if (kernel_stack == 0) {
   11099:	83 7d e8 00          	cmpl   $0x0,-0x18(%ebp)
   1109d:	0f 84 2d 01 00 00    	je     111d0 <tss_init+0x1a0>
        goto tss_init_failed;
    }
    
    // 根据不同的权限选择不同的访问选择子
    int code_sel, data_sel;
    if (flag & TASK_FLAG_SYSTEM) {
   110a3:	8b 45 0c             	mov    0xc(%ebp),%eax
   110a6:	83 e0 01             	and    $0x1,%eax
   110a9:	85 c0                	test   %eax,%eax
   110ab:	74 10                	je     110bd <tss_init+0x8d>
        code_sel = KERNEL_SELECTOR_CS;
   110ad:	c7 45 f4 08 00 00 00 	movl   $0x8,-0xc(%ebp)
        data_sel = KERNEL_SELECTOR_DS;
   110b4:	c7 45 f0 10 00 00 00 	movl   $0x10,-0x10(%ebp)
   110bb:	eb 16                	jmp    110d3 <tss_init+0xa3>
    } else {
        // 注意加了RP3,不然将产生段保护错误
        code_sel = task_manager.app_code_sel | SEG_RPL3;
   110bd:	a1 b8 d5 01 00       	mov    0x1d5b8,%eax
   110c2:	83 c8 03             	or     $0x3,%eax
   110c5:	89 45 f4             	mov    %eax,-0xc(%ebp)
        data_sel = task_manager.app_data_sel | SEG_RPL3;
   110c8:	a1 bc d5 01 00       	mov    0x1d5bc,%eax
   110cd:	83 c8 03             	or     $0x3,%eax
   110d0:	89 45 f0             	mov    %eax,-0x10(%ebp)
    }

    task->tss.eip = entry;
   110d3:	8b 45 08             	mov    0x8(%ebp),%eax
   110d6:	8b 55 10             	mov    0x10(%ebp),%edx
   110d9:	89 90 64 02 00 00    	mov    %edx,0x264(%eax)
    task->tss.esp = esp ? esp : kernel_stack + MEM_PAGE_SIZE;  // 未指定栈则用内核栈，即运行在特权级0的进程
   110df:	83 7d 14 00          	cmpl   $0x0,0x14(%ebp)
   110e3:	75 0a                	jne    110ef <tss_init+0xbf>
   110e5:	8b 45 e8             	mov    -0x18(%ebp),%eax
   110e8:	05 00 10 00 00       	add    $0x1000,%eax
   110ed:	eb 03                	jmp    110f2 <tss_init+0xc2>
   110ef:	8b 45 14             	mov    0x14(%ebp),%eax
   110f2:	8b 55 08             	mov    0x8(%ebp),%edx
   110f5:	89 82 7c 02 00 00    	mov    %eax,0x27c(%edx)
    task->tss.esp0 = kernel_stack + MEM_PAGE_SIZE;
   110fb:	8b 45 e8             	mov    -0x18(%ebp),%eax
   110fe:	8d 90 00 10 00 00    	lea    0x1000(%eax),%edx
   11104:	8b 45 08             	mov    0x8(%ebp),%eax
   11107:	89 90 48 02 00 00    	mov    %edx,0x248(%eax)
    task->tss.ss0 = KERNEL_SELECTOR_DS;
   1110d:	8b 45 08             	mov    0x8(%ebp),%eax
   11110:	c7 80 4c 02 00 00 10 	movl   $0x10,0x24c(%eax)
   11117:	00 00 00 
    task->tss.eip = entry;
   1111a:	8b 45 08             	mov    0x8(%ebp),%eax
   1111d:	8b 55 10             	mov    0x10(%ebp),%edx
   11120:	89 90 64 02 00 00    	mov    %edx,0x264(%eax)
    task->tss.eflags = EFLAGS_DEFAULT| EFLAGS_IF;
   11126:	8b 45 08             	mov    0x8(%ebp),%eax
   11129:	c7 80 68 02 00 00 02 	movl   $0x202,0x268(%eax)
   11130:	02 00 00 
    task->tss.es = task->tss.ss = task->tss.ds = task->tss.fs 
            = task->tss.gs = data_sel;   // 全部采用同一数据段
   11133:	8b 55 f0             	mov    -0x10(%ebp),%edx
   11136:	8b 45 08             	mov    0x8(%ebp),%eax
   11139:	89 90 a0 02 00 00    	mov    %edx,0x2a0(%eax)
   1113f:	8b 45 08             	mov    0x8(%ebp),%eax
   11142:	8b 90 a0 02 00 00    	mov    0x2a0(%eax),%edx
   11148:	8b 45 08             	mov    0x8(%ebp),%eax
   1114b:	89 90 9c 02 00 00    	mov    %edx,0x29c(%eax)
    task->tss.es = task->tss.ss = task->tss.ds = task->tss.fs 
   11151:	8b 45 08             	mov    0x8(%ebp),%eax
   11154:	8b 90 9c 02 00 00    	mov    0x29c(%eax),%edx
   1115a:	8b 45 08             	mov    0x8(%ebp),%eax
   1115d:	89 90 98 02 00 00    	mov    %edx,0x298(%eax)
   11163:	8b 45 08             	mov    0x8(%ebp),%eax
   11166:	8b 90 98 02 00 00    	mov    0x298(%eax),%edx
   1116c:	8b 45 08             	mov    0x8(%ebp),%eax
   1116f:	89 90 94 02 00 00    	mov    %edx,0x294(%eax)
   11175:	8b 45 08             	mov    0x8(%ebp),%eax
   11178:	8b 90 94 02 00 00    	mov    0x294(%eax),%edx
   1117e:	8b 45 08             	mov    0x8(%ebp),%eax
   11181:	89 90 8c 02 00 00    	mov    %edx,0x28c(%eax)
    task->tss.cs = code_sel; 
   11187:	8b 55 f4             	mov    -0xc(%ebp),%edx
   1118a:	8b 45 08             	mov    0x8(%ebp),%eax
   1118d:	89 90 90 02 00 00    	mov    %edx,0x290(%eax)
    task->tss.iomap = 0;
   11193:	8b 45 08             	mov    0x8(%ebp),%eax
   11196:	c7 80 a8 02 00 00 00 	movl   $0x0,0x2a8(%eax)
   1119d:	00 00 00 

    // 页表初始化
    uint32_t page_dir = memory_create_uvm();
   111a0:	e8 0d f6 ff ff       	call   107b2 <memory_create_uvm>
   111a5:	89 45 e4             	mov    %eax,-0x1c(%ebp)
    if (page_dir == 0) {
   111a8:	83 7d e4 00          	cmpl   $0x0,-0x1c(%ebp)
   111ac:	74 25                	je     111d3 <tss_init+0x1a3>
        goto tss_init_failed;
    }
    task->tss.cr3 = page_dir;
   111ae:	8b 45 08             	mov    0x8(%ebp),%eax
   111b1:	8b 55 e4             	mov    -0x1c(%ebp),%edx
   111b4:	89 90 60 02 00 00    	mov    %edx,0x260(%eax)

    task->tss_sel = tss_sel;
   111ba:	8b 45 ec             	mov    -0x14(%ebp),%eax
   111bd:	89 c2                	mov    %eax,%edx
   111bf:	8b 45 08             	mov    0x8(%ebp),%eax
   111c2:	66 89 90 ac 02 00 00 	mov    %dx,0x2ac(%eax)
    return 0;
   111c9:	b8 00 00 00 00       	mov    $0x0,%eax
   111ce:	eb 2b                	jmp    111fb <tss_init+0x1cb>
        goto tss_init_failed;
   111d0:	90                   	nop
   111d1:	eb 01                	jmp    111d4 <tss_init+0x1a4>
        goto tss_init_failed;
   111d3:	90                   	nop
tss_init_failed:
    gdt_free_sel(tss_sel);
   111d4:	83 ec 0c             	sub    $0xc,%esp
   111d7:	ff 75 ec             	pushl  -0x14(%ebp)
   111da:	e8 1e 14 00 00       	call   125fd <gdt_free_sel>
   111df:	83 c4 10             	add    $0x10,%esp

    if (kernel_stack) {
   111e2:	83 7d e8 00          	cmpl   $0x0,-0x18(%ebp)
   111e6:	74 0e                	je     111f6 <tss_init+0x1c6>
        memory_free_page(kernel_stack);
   111e8:	83 ec 0c             	sub    $0xc,%esp
   111eb:	ff 75 e8             	pushl  -0x18(%ebp)
   111ee:	e8 99 fa ff ff       	call   10c8c <memory_free_page>
   111f3:	83 c4 10             	add    $0x10,%esp
    }
    return -1;
   111f6:	b8 ff ff ff ff       	mov    $0xffffffff,%eax
}
   111fb:	c9                   	leave  
   111fc:	c3                   	ret    

000111fd <task_init>:

/**
 * @brief 初始化任务
 */
int task_init (task_t *task, const char * name, int flag, uint32_t entry, uint32_t esp) {
   111fd:	55                   	push   %ebp
   111fe:	89 e5                	mov    %esp,%ebp
   11200:	83 ec 18             	sub    $0x18,%esp
    ASSERT(task != (task_t *)0);
   11203:	83 7d 08 00          	cmpl   $0x0,0x8(%ebp)
   11207:	75 19                	jne    11222 <task_init+0x25>
   11209:	68 87 8e 01 00       	push   $0x18e87
   1120e:	68 04 90 01 00       	push   $0x19004
   11213:	6a 56                	push   $0x56
   11215:	68 9c 8e 01 00       	push   $0x18e9c
   1121a:	e8 b4 75 00 00       	call   187d3 <panic>
   1121f:	83 c4 10             	add    $0x10,%esp

    int err = tss_init(task, flag, entry, esp);
   11222:	ff 75 18             	pushl  0x18(%ebp)
   11225:	ff 75 14             	pushl  0x14(%ebp)
   11228:	ff 75 10             	pushl  0x10(%ebp)
   1122b:	ff 75 08             	pushl  0x8(%ebp)
   1122e:	e8 fd fd ff ff       	call   11030 <tss_init>
   11233:	83 c4 10             	add    $0x10,%esp
   11236:	89 45 f4             	mov    %eax,-0xc(%ebp)
    if (err < 0) {
   11239:	83 7d f4 00          	cmpl   $0x0,-0xc(%ebp)
   1123d:	79 18                	jns    11257 <task_init+0x5a>
        log_printf("init task failed.\n");
   1123f:	83 ec 0c             	sub    $0xc,%esp
   11242:	68 cd 8e 01 00       	push   $0x18ecd
   11247:	e8 e4 77 00 00       	call   18a30 <log_printf>
   1124c:	83 c4 10             	add    $0x10,%esp
        return err;
   1124f:	8b 45 f4             	mov    -0xc(%ebp),%eax
   11252:	e9 f0 00 00 00       	jmp    11347 <task_init+0x14a>
    }

    // 任务字段初始化
    kernel_strncpy(task->name, name, TASK_NAME_SIZE);
   11257:	8b 45 08             	mov    0x8(%ebp),%eax
   1125a:	83 c0 04             	add    $0x4,%eax
   1125d:	83 ec 04             	sub    $0x4,%esp
   11260:	6a 20                	push   $0x20
   11262:	ff 75 0c             	pushl  0xc(%ebp)
   11265:	50                   	push   %eax
   11266:	e8 a7 70 00 00       	call   18312 <kernel_strncpy>
   1126b:	83 c4 10             	add    $0x10,%esp
    task->state = TASK_CREATED;
   1126e:	8b 45 08             	mov    0x8(%ebp),%eax
   11271:	c7 00 00 00 00 00    	movl   $0x0,(%eax)
    task->sleep_ticks = 0;
   11277:	8b 45 08             	mov    0x8(%ebp),%eax
   1127a:	c7 40 38 00 00 00 00 	movl   $0x0,0x38(%eax)
    task->time_slice = TASK_TIME_SLICE_DEFAULT;
   11281:	8b 45 08             	mov    0x8(%ebp),%eax
   11284:	c7 40 3c 0a 00 00 00 	movl   $0xa,0x3c(%eax)
    task->slice_ticks = task->time_slice;
   1128b:	8b 45 08             	mov    0x8(%ebp),%eax
   1128e:	8b 50 3c             	mov    0x3c(%eax),%edx
   11291:	8b 45 08             	mov    0x8(%ebp),%eax
   11294:	89 50 40             	mov    %edx,0x40(%eax)
    task->parent = (task_t *)0;
   11297:	8b 45 08             	mov    0x8(%ebp),%eax
   1129a:	c7 40 28 00 00 00 00 	movl   $0x0,0x28(%eax)
    task->heap_start = 0;
   112a1:	8b 45 08             	mov    0x8(%ebp),%eax
   112a4:	c7 40 2c 00 00 00 00 	movl   $0x0,0x2c(%eax)
    task->heap_end = 0;
   112ab:	8b 45 08             	mov    0x8(%ebp),%eax
   112ae:	c7 40 30 00 00 00 00 	movl   $0x0,0x30(%eax)
    list_node_init(&task->all_node);
   112b5:	8b 45 08             	mov    0x8(%ebp),%eax
   112b8:	05 c0 02 00 00       	add    $0x2c0,%eax
   112bd:	83 ec 0c             	sub    $0xc,%esp
   112c0:	50                   	push   %eax
   112c1:	e8 1e fd ff ff       	call   10fe4 <list_node_init>
   112c6:	83 c4 10             	add    $0x10,%esp
    list_node_init(&task->run_node);
   112c9:	8b 45 08             	mov    0x8(%ebp),%eax
   112cc:	05 b0 02 00 00       	add    $0x2b0,%eax
   112d1:	83 ec 0c             	sub    $0xc,%esp
   112d4:	50                   	push   %eax
   112d5:	e8 0a fd ff ff       	call   10fe4 <list_node_init>
   112da:	83 c4 10             	add    $0x10,%esp
    list_node_init(&task->wait_node);
   112dd:	8b 45 08             	mov    0x8(%ebp),%eax
   112e0:	05 b8 02 00 00       	add    $0x2b8,%eax
   112e5:	83 ec 0c             	sub    $0xc,%esp
   112e8:	50                   	push   %eax
   112e9:	e8 f6 fc ff ff       	call   10fe4 <list_node_init>
   112ee:	83 c4 10             	add    $0x10,%esp

    // 文件相关
    kernel_memset(task->file_table, 0, sizeof(task->file_table));
   112f1:	8b 45 08             	mov    0x8(%ebp),%eax
   112f4:	83 c0 44             	add    $0x44,%eax
   112f7:	83 ec 04             	sub    $0x4,%esp
   112fa:	68 00 02 00 00       	push   $0x200
   112ff:	6a 00                	push   $0x0
   11301:	50                   	push   %eax
   11302:	e8 7f 71 00 00       	call   18486 <kernel_memset>
   11307:	83 c4 10             	add    $0x10,%esp

    // 插入就绪队列中和所有的任务队列中
    irq_state_t state = irq_enter_protection();
   1130a:	e8 03 1e 00 00       	call   13112 <irq_enter_protection>
   1130f:	89 45 f0             	mov    %eax,-0x10(%ebp)
    task->pid = (uint32_t)task;   // 使用地址，能唯一
   11312:	8b 55 08             	mov    0x8(%ebp),%edx
   11315:	8b 45 08             	mov    0x8(%ebp),%eax
   11318:	89 50 24             	mov    %edx,0x24(%eax)
    list_insert_last(&task_manager.task_list, &task->all_node);
   1131b:	8b 45 08             	mov    0x8(%ebp),%eax
   1131e:	05 c0 02 00 00       	add    $0x2c0,%eax
   11323:	83 ec 08             	sub    $0x8,%esp
   11326:	50                   	push   %eax
   11327:	68 10 d0 01 00       	push   $0x1d010
   1132c:	e8 6f 75 00 00       	call   188a0 <list_insert_last>
   11331:	83 c4 10             	add    $0x10,%esp
    irq_leave_protection(state);
   11334:	83 ec 0c             	sub    $0xc,%esp
   11337:	ff 75 f0             	pushl  -0x10(%ebp)
   1133a:	e8 eb 1d 00 00       	call   1312a <irq_leave_protection>
   1133f:	83 c4 10             	add    $0x10,%esp
    return 0;
   11342:	b8 00 00 00 00       	mov    $0x0,%eax
}
   11347:	c9                   	leave  
   11348:	c3                   	ret    

00011349 <task_start>:

/**
 * @brief 启动任务
 */
void task_start(task_t * task) {
   11349:	55                   	push   %ebp
   1134a:	89 e5                	mov    %esp,%ebp
   1134c:	83 ec 18             	sub    $0x18,%esp
    irq_state_t state = irq_enter_protection();
   1134f:	e8 be 1d 00 00       	call   13112 <irq_enter_protection>
   11354:	89 45 f4             	mov    %eax,-0xc(%ebp)
    task_set_ready(task);
   11357:	83 ec 0c             	sub    $0xc,%esp
   1135a:	ff 75 08             	pushl  0x8(%ebp)
   1135d:	e8 a9 02 00 00       	call   1160b <task_set_ready>
   11362:	83 c4 10             	add    $0x10,%esp
    irq_leave_protection(state);
   11365:	83 ec 0c             	sub    $0xc,%esp
   11368:	ff 75 f4             	pushl  -0xc(%ebp)
   1136b:	e8 ba 1d 00 00       	call   1312a <irq_leave_protection>
   11370:	83 c4 10             	add    $0x10,%esp
}
   11373:	90                   	nop
   11374:	c9                   	leave  
   11375:	c3                   	ret    

00011376 <task_uninit>:

/**
 * @brief 任务任务初始时分配的各项资源
 */
void task_uninit (task_t * task) {
   11376:	55                   	push   %ebp
   11377:	89 e5                	mov    %esp,%ebp
   11379:	83 ec 08             	sub    $0x8,%esp
    if (task->tss_sel) {
   1137c:	8b 45 08             	mov    0x8(%ebp),%eax
   1137f:	0f b7 80 ac 02 00 00 	movzwl 0x2ac(%eax),%eax
   11386:	66 85 c0             	test   %ax,%ax
   11389:	74 19                	je     113a4 <task_uninit+0x2e>
        gdt_free_sel(task->tss_sel);
   1138b:	8b 45 08             	mov    0x8(%ebp),%eax
   1138e:	0f b7 80 ac 02 00 00 	movzwl 0x2ac(%eax),%eax
   11395:	0f b7 c0             	movzwl %ax,%eax
   11398:	83 ec 0c             	sub    $0xc,%esp
   1139b:	50                   	push   %eax
   1139c:	e8 5c 12 00 00       	call   125fd <gdt_free_sel>
   113a1:	83 c4 10             	add    $0x10,%esp
    }

    if (task->tss.esp0) {
   113a4:	8b 45 08             	mov    0x8(%ebp),%eax
   113a7:	8b 80 48 02 00 00    	mov    0x248(%eax),%eax
   113ad:	85 c0                	test   %eax,%eax
   113af:	74 1a                	je     113cb <task_uninit+0x55>
        memory_free_page(task->tss.esp0 - MEM_PAGE_SIZE);
   113b1:	8b 45 08             	mov    0x8(%ebp),%eax
   113b4:	8b 80 48 02 00 00    	mov    0x248(%eax),%eax
   113ba:	2d 00 10 00 00       	sub    $0x1000,%eax
   113bf:	83 ec 0c             	sub    $0xc,%esp
   113c2:	50                   	push   %eax
   113c3:	e8 c4 f8 ff ff       	call   10c8c <memory_free_page>
   113c8:	83 c4 10             	add    $0x10,%esp
    }

    if (task->tss.cr3) {
   113cb:	8b 45 08             	mov    0x8(%ebp),%eax
   113ce:	8b 80 60 02 00 00    	mov    0x260(%eax),%eax
   113d4:	85 c0                	test   %eax,%eax
   113d6:	74 15                	je     113ed <task_uninit+0x77>
        memory_destroy_uvm(task->tss.cr3);
   113d8:	8b 45 08             	mov    0x8(%ebp),%eax
   113db:	8b 80 60 02 00 00    	mov    0x260(%eax),%eax
   113e1:	83 ec 0c             	sub    $0xc,%esp
   113e4:	50                   	push   %eax
   113e5:	e8 4d f4 ff ff       	call   10837 <memory_destroy_uvm>
   113ea:	83 c4 10             	add    $0x10,%esp
    }

    kernel_memset(task, 0, sizeof(task_t));
   113ed:	83 ec 04             	sub    $0x4,%esp
   113f0:	68 c8 02 00 00       	push   $0x2c8
   113f5:	6a 00                	push   $0x0
   113f7:	ff 75 08             	pushl  0x8(%ebp)
   113fa:	e8 87 70 00 00       	call   18486 <kernel_memset>
   113ff:	83 c4 10             	add    $0x10,%esp
}
   11402:	90                   	nop
   11403:	c9                   	leave  
   11404:	c3                   	ret    

00011405 <task_switch_from_to>:
void simple_switch (uint32_t ** from, uint32_t * to);

/**
 * @brief 切换至指定任务
 */
void task_switch_from_to (task_t * from, task_t * to) {
   11405:	55                   	push   %ebp
   11406:	89 e5                	mov    %esp,%ebp
   11408:	83 ec 08             	sub    $0x8,%esp
     switch_to_tss(to->tss_sel);
   1140b:	8b 45 0c             	mov    0xc(%ebp),%eax
   1140e:	0f b7 80 ac 02 00 00 	movzwl 0x2ac(%eax),%eax
   11415:	0f b7 c0             	movzwl %ax,%eax
   11418:	83 ec 0c             	sub    $0xc,%esp
   1141b:	50                   	push   %eax
   1141c:	e8 16 13 00 00       	call   12737 <switch_to_tss>
   11421:	83 c4 10             	add    $0x10,%esp
    //simple_switch(&from->stack, to->stack);
}
   11424:	90                   	nop
   11425:	c9                   	leave  
   11426:	c3                   	ret    

00011427 <task_first_init>:
 * 将init加载地址设置成和内核一起的，运行地址设置成用户进程运行的高处。
 * 不过，考虑到init可能用到newlib库，如果与kernel合并编译，在lds中很难控制将newlib的
 * 代码与init进程的放在一起，有可能与kernel放在了一起。
 * 综上，最好是分离。
 */
void task_first_init (void) {
   11427:	55                   	push   %ebp
   11428:	89 e5                	mov    %esp,%ebp
   1142a:	83 ec 18             	sub    $0x18,%esp

    // 以下获得的是bin文件在内存中的物理地址
    extern uint8_t s_first_task[], e_first_task[];

    // 分配的空间比实际存储的空间要大一些，多余的用于放置栈
    uint32_t copy_size = (uint32_t)(e_first_task - s_first_task);
   1142d:	ba 47 04 06 00       	mov    $0x60447,%edx
   11432:	b8 c0 00 06 00       	mov    $0x600c0,%eax
   11437:	29 c2                	sub    %eax,%edx
   11439:	89 d0                	mov    %edx,%eax
   1143b:	89 45 f4             	mov    %eax,-0xc(%ebp)
    uint32_t alloc_size = 10 * MEM_PAGE_SIZE;
   1143e:	c7 45 f0 00 a0 00 00 	movl   $0xa000,-0x10(%ebp)
    ASSERT(copy_size < alloc_size);
   11445:	8b 45 f4             	mov    -0xc(%ebp),%eax
   11448:	3b 45 f0             	cmp    -0x10(%ebp),%eax
   1144b:	72 1c                	jb     11469 <task_first_init+0x42>
   1144d:	68 e0 8e 01 00       	push   $0x18ee0
   11452:	68 10 90 01 00       	push   $0x19010
   11457:	68 ae 00 00 00       	push   $0xae
   1145c:	68 9c 8e 01 00       	push   $0x18e9c
   11461:	e8 6d 73 00 00       	call   187d3 <panic>
   11466:	83 c4 10             	add    $0x10,%esp

    uint32_t first_start = (uint32_t)first_task_entry;
   11469:	c7 45 ec 00 00 00 80 	movl   $0x80000000,-0x14(%ebp)

    // 第一个任务代码量小一些，好和栈放在1个页面呢
    // 这样就不要立即考虑还要给栈分配空间的问题
    task_init(&task_manager.first_task, "first task", 0, first_start, first_start + alloc_size);
   11470:	8b 55 ec             	mov    -0x14(%ebp),%edx
   11473:	8b 45 f0             	mov    -0x10(%ebp),%eax
   11476:	01 d0                	add    %edx,%eax
   11478:	83 ec 0c             	sub    $0xc,%esp
   1147b:	50                   	push   %eax
   1147c:	ff 75 ec             	pushl  -0x14(%ebp)
   1147f:	6a 00                	push   $0x0
   11481:	68 f7 8e 01 00       	push   $0x18ef7
   11486:	68 28 d0 01 00       	push   $0x1d028
   1148b:	e8 6d fd ff ff       	call   111fd <task_init>
   11490:	83 c4 20             	add    $0x20,%esp
    task_manager.first_task.heap_start = (uint32_t)e_first_task;  // 这里不对
   11493:	b8 47 04 06 00       	mov    $0x60447,%eax
   11498:	a3 54 d0 01 00       	mov    %eax,0x1d054
    task_manager.first_task.heap_end = task_manager.first_task.heap_start;
   1149d:	a1 54 d0 01 00       	mov    0x1d054,%eax
   114a2:	a3 58 d0 01 00       	mov    %eax,0x1d058
    task_manager.curr_task = &task_manager.first_task;
   114a7:	c7 05 00 d0 01 00 28 	movl   $0x1d028,0x1d000
   114ae:	d0 01 00 

    // 更新页表地址为自己的
    mmu_set_page_dir(task_manager.first_task.tss.cr3);
   114b1:	a1 88 d2 01 00       	mov    0x1d288,%eax
   114b6:	83 ec 0c             	sub    $0xc,%esp
   114b9:	50                   	push   %eax
   114ba:	e8 60 fb ff ff       	call   1101f <mmu_set_page_dir>
   114bf:	83 c4 10             	add    $0x10,%esp

    // 分配一页内存供代码存放使用，然后将代码复制过去
    memory_alloc_page_for(first_start,  alloc_size, PTE_P | PTE_W | PTE_U);
   114c2:	83 ec 04             	sub    $0x4,%esp
   114c5:	6a 07                	push   $0x7
   114c7:	ff 75 f0             	pushl  -0x10(%ebp)
   114ca:	ff 75 ec             	pushl  -0x14(%ebp)
   114cd:	e8 7b f7 ff ff       	call   10c4d <memory_alloc_page_for>
   114d2:	83 c4 10             	add    $0x10,%esp
    kernel_memcpy((void *)first_start, (void *)&s_first_task, copy_size);
   114d5:	8b 55 f4             	mov    -0xc(%ebp),%edx
   114d8:	8b 45 ec             	mov    -0x14(%ebp),%eax
   114db:	83 ec 04             	sub    $0x4,%esp
   114de:	52                   	push   %edx
   114df:	68 c0 00 06 00       	push   $0x600c0
   114e4:	50                   	push   %eax
   114e5:	e8 4d 6f 00 00       	call   18437 <kernel_memcpy>
   114ea:	83 c4 10             	add    $0x10,%esp

    // 启动进程
    task_start(&task_manager.first_task);
   114ed:	83 ec 0c             	sub    $0xc,%esp
   114f0:	68 28 d0 01 00       	push   $0x1d028
   114f5:	e8 4f fe ff ff       	call   11349 <task_start>
   114fa:	83 c4 10             	add    $0x10,%esp

    // 写TR寄存器，指示当前运行的第一个任务
    write_tr(task_manager.first_task.tss_sel);
   114fd:	0f b7 05 d4 d2 01 00 	movzwl 0x1d2d4,%eax
   11504:	0f b7 c0             	movzwl %ax,%eax
   11507:	83 ec 0c             	sub    $0xc,%esp
   1150a:	50                   	push   %eax
   1150b:	e8 c8 fa ff ff       	call   10fd8 <write_tr>
   11510:	83 c4 10             	add    $0x10,%esp
}
   11513:	90                   	nop
   11514:	c9                   	leave  
   11515:	c3                   	ret    

00011516 <task_first_task>:

/**
 * @brief 返回初始任务
 */
task_t * task_first_task (void) {
   11516:	55                   	push   %ebp
   11517:	89 e5                	mov    %esp,%ebp
    return &task_manager.first_task;
   11519:	b8 28 d0 01 00       	mov    $0x1d028,%eax
}
   1151e:	5d                   	pop    %ebp
   1151f:	c3                   	ret    

00011520 <idle_task_entry>:

/**
 * @brief 空闲任务
 */
static void idle_task_entry (void) {
   11520:	55                   	push   %ebp
   11521:	89 e5                	mov    %esp,%ebp
    for (;;) {
        hlt();
   11523:	e8 a9 fa ff ff       	call   10fd1 <hlt>
   11528:	eb f9                	jmp    11523 <idle_task_entry+0x3>

0001152a <task_manager_init>:
}

/**
 * @brief 任务管理器初始化
 */
void task_manager_init (void) {
   1152a:	55                   	push   %ebp
   1152b:	89 e5                	mov    %esp,%ebp
   1152d:	83 ec 18             	sub    $0x18,%esp
    kernel_memset(task_table, 0, sizeof(task_table));
   11530:	83 ec 04             	sub    $0x4,%esp
   11533:	68 00 64 01 00       	push   $0x16400
   11538:	6a 00                	push   $0x0
   1153a:	68 c0 e5 01 00       	push   $0x1e5c0
   1153f:	e8 42 6f 00 00       	call   18486 <kernel_memset>
   11544:	83 c4 10             	add    $0x10,%esp
    mutex_init(&task_table_mutex);
   11547:	83 ec 0c             	sub    $0xc,%esp
   1154a:	68 c0 49 03 00       	push   $0x349c0
   1154f:	e8 e7 67 00 00       	call   17d3b <mutex_init>
   11554:	83 c4 10             	add    $0x10,%esp

    //数据段和代码段，使用DPL3，所有应用共用同一个
    //为调试方便，暂时使用DPL0
    int sel = gdt_alloc_desc();
   11557:	e8 da 10 00 00       	call   12636 <gdt_alloc_desc>
   1155c:	89 45 f4             	mov    %eax,-0xc(%ebp)
    segment_desc_set(sel, 0x00000000, 0xFFFFFFFF,
   1155f:	68 f2 40 00 00       	push   $0x40f2
   11564:	6a ff                	push   $0xffffffff
   11566:	6a 00                	push   $0x0
   11568:	ff 75 f4             	pushl  -0xc(%ebp)
   1156b:	e8 c0 0f 00 00       	call   12530 <segment_desc_set>
   11570:	83 c4 10             	add    $0x10,%esp
                     SEG_P_PRESENT | SEG_DPL3 | SEG_S_NORMAL |
                     SEG_TYPE_DATA | SEG_TYPE_RW | SEG_D);
    task_manager.app_data_sel = sel;
   11573:	8b 45 f4             	mov    -0xc(%ebp),%eax
   11576:	a3 bc d5 01 00       	mov    %eax,0x1d5bc

    sel = gdt_alloc_desc();
   1157b:	e8 b6 10 00 00       	call   12636 <gdt_alloc_desc>
   11580:	89 45 f4             	mov    %eax,-0xc(%ebp)
    segment_desc_set(sel, 0x00000000, 0xFFFFFFFF,
   11583:	68 fa 40 00 00       	push   $0x40fa
   11588:	6a ff                	push   $0xffffffff
   1158a:	6a 00                	push   $0x0
   1158c:	ff 75 f4             	pushl  -0xc(%ebp)
   1158f:	e8 9c 0f 00 00       	call   12530 <segment_desc_set>
   11594:	83 c4 10             	add    $0x10,%esp
                     SEG_P_PRESENT | SEG_DPL3 | SEG_S_NORMAL |
                     SEG_TYPE_CODE | SEG_TYPE_RW | SEG_D);
    task_manager.app_code_sel = sel;
   11597:	8b 45 f4             	mov    -0xc(%ebp),%eax
   1159a:	a3 b8 d5 01 00       	mov    %eax,0x1d5b8

    // 各队列初始化
    list_init(&task_manager.ready_list);
   1159f:	83 ec 0c             	sub    $0xc,%esp
   115a2:	68 04 d0 01 00       	push   $0x1d004
   115a7:	e8 70 72 00 00       	call   1881c <list_init>
   115ac:	83 c4 10             	add    $0x10,%esp
    list_init(&task_manager.task_list);
   115af:	83 ec 0c             	sub    $0xc,%esp
   115b2:	68 10 d0 01 00       	push   $0x1d010
   115b7:	e8 60 72 00 00       	call   1881c <list_init>
   115bc:	83 c4 10             	add    $0x10,%esp
    list_init(&task_manager.sleep_list);
   115bf:	83 ec 0c             	sub    $0xc,%esp
   115c2:	68 1c d0 01 00       	push   $0x1d01c
   115c7:	e8 50 72 00 00       	call   1881c <list_init>
   115cc:	83 c4 10             	add    $0x10,%esp

    // 空闲任务初始化
    task_init(&task_manager.idle_task,
   115cf:	b8 20 15 01 00       	mov    $0x11520,%eax
   115d4:	83 ec 0c             	sub    $0xc,%esp
   115d7:	6a 00                	push   $0x0
   115d9:	50                   	push   %eax
   115da:	6a 01                	push   $0x1
   115dc:	68 02 8f 01 00       	push   $0x18f02
   115e1:	68 f0 d2 01 00       	push   $0x1d2f0
   115e6:	e8 12 fc ff ff       	call   111fd <task_init>
   115eb:	83 c4 20             	add    $0x20,%esp
                "idle task",
                TASK_FLAG_SYSTEM,
                (uint32_t)idle_task_entry,
                0);     // 运行于内核模式，无需指定特权级3的栈
    task_manager.curr_task = (task_t *)0;
   115ee:	c7 05 00 d0 01 00 00 	movl   $0x0,0x1d000
   115f5:	00 00 00 
    task_start(&task_manager.idle_task);
   115f8:	83 ec 0c             	sub    $0xc,%esp
   115fb:	68 f0 d2 01 00       	push   $0x1d2f0
   11600:	e8 44 fd ff ff       	call   11349 <task_start>
   11605:	83 c4 10             	add    $0x10,%esp
}
   11608:	90                   	nop
   11609:	c9                   	leave  
   1160a:	c3                   	ret    

0001160b <task_set_ready>:

/**
 * @brief 将任务插入就绪队列
 */
void task_set_ready(task_t *task) {
   1160b:	55                   	push   %ebp
   1160c:	89 e5                	mov    %esp,%ebp
   1160e:	83 ec 08             	sub    $0x8,%esp
    if (task != &task_manager.idle_task) {
   11611:	81 7d 08 f0 d2 01 00 	cmpl   $0x1d2f0,0x8(%ebp)
   11618:	74 22                	je     1163c <task_set_ready+0x31>
        list_insert_last(&task_manager.ready_list, &task->run_node);
   1161a:	8b 45 08             	mov    0x8(%ebp),%eax
   1161d:	05 b0 02 00 00       	add    $0x2b0,%eax
   11622:	83 ec 08             	sub    $0x8,%esp
   11625:	50                   	push   %eax
   11626:	68 04 d0 01 00       	push   $0x1d004
   1162b:	e8 70 72 00 00       	call   188a0 <list_insert_last>
   11630:	83 c4 10             	add    $0x10,%esp
        task->state = TASK_READY;
   11633:	8b 45 08             	mov    0x8(%ebp),%eax
   11636:	c7 00 03 00 00 00    	movl   $0x3,(%eax)
    }
}
   1163c:	90                   	nop
   1163d:	c9                   	leave  
   1163e:	c3                   	ret    

0001163f <task_set_block>:

/**
 * @brief 将任务从就绪队列移除
 */
void task_set_block (task_t *task) {
   1163f:	55                   	push   %ebp
   11640:	89 e5                	mov    %esp,%ebp
   11642:	83 ec 08             	sub    $0x8,%esp
    if (task != &task_manager.idle_task) {
   11645:	81 7d 08 f0 d2 01 00 	cmpl   $0x1d2f0,0x8(%ebp)
   1164c:	74 19                	je     11667 <task_set_block+0x28>
        list_remove(&task_manager.ready_list, &task->run_node);
   1164e:	8b 45 08             	mov    0x8(%ebp),%eax
   11651:	05 b0 02 00 00       	add    $0x2b0,%eax
   11656:	83 ec 08             	sub    $0x8,%esp
   11659:	50                   	push   %eax
   1165a:	68 04 d0 01 00       	push   $0x1d004
   1165f:	e8 18 73 00 00       	call   1897c <list_remove>
   11664:	83 c4 10             	add    $0x10,%esp
    }
}
   11667:	90                   	nop
   11668:	c9                   	leave  
   11669:	c3                   	ret    

0001166a <task_next_run>:
/**
 * @brief 获取下一将要运行的任务
 */
static task_t * task_next_run (void) {
   1166a:	55                   	push   %ebp
   1166b:	89 e5                	mov    %esp,%ebp
   1166d:	83 ec 10             	sub    $0x10,%esp
    // 如果没有任务，则运行空闲任务
    if (list_count(&task_manager.ready_list) == 0) {
   11670:	68 04 d0 01 00       	push   $0x1d004
   11675:	e8 90 f9 ff ff       	call   1100a <list_count>
   1167a:	83 c4 04             	add    $0x4,%esp
   1167d:	85 c0                	test   %eax,%eax
   1167f:	75 07                	jne    11688 <task_next_run+0x1e>
        return &task_manager.idle_task;
   11681:	b8 f0 d2 01 00       	mov    $0x1d2f0,%eax
   11686:	eb 25                	jmp    116ad <task_next_run+0x43>
    }
    
    // 普通任务
    list_node_t * task_node = list_first(&task_manager.ready_list);
   11688:	68 04 d0 01 00       	push   $0x1d004
   1168d:	e8 83 f9 ff ff       	call   11015 <list_first>
   11692:	83 c4 04             	add    $0x4,%esp
   11695:	89 45 fc             	mov    %eax,-0x4(%ebp)
    return list_node_parent(task_node, task_t, run_node);
   11698:	83 7d fc 00          	cmpl   $0x0,-0x4(%ebp)
   1169c:	74 0a                	je     116a8 <task_next_run+0x3e>
   1169e:	8b 45 fc             	mov    -0x4(%ebp),%eax
   116a1:	2d b0 02 00 00       	sub    $0x2b0,%eax
   116a6:	eb 05                	jmp    116ad <task_next_run+0x43>
   116a8:	b8 00 00 00 00       	mov    $0x0,%eax
}
   116ad:	c9                   	leave  
   116ae:	c3                   	ret    

000116af <task_set_sleep>:

/**
 * @brief 将任务加入睡眠状态
 */
void task_set_sleep(task_t *task, uint32_t ticks) {
   116af:	55                   	push   %ebp
   116b0:	89 e5                	mov    %esp,%ebp
   116b2:	83 ec 08             	sub    $0x8,%esp
    if (ticks <= 0) {
   116b5:	83 7d 0c 00          	cmpl   $0x0,0xc(%ebp)
   116b9:	74 2d                	je     116e8 <task_set_sleep+0x39>
        return;
    }

    task->sleep_ticks = ticks;
   116bb:	8b 55 0c             	mov    0xc(%ebp),%edx
   116be:	8b 45 08             	mov    0x8(%ebp),%eax
   116c1:	89 50 38             	mov    %edx,0x38(%eax)
    task->state = TASK_SLEEP;
   116c4:	8b 45 08             	mov    0x8(%ebp),%eax
   116c7:	c7 00 02 00 00 00    	movl   $0x2,(%eax)
    list_insert_last(&task_manager.sleep_list, &task->run_node);
   116cd:	8b 45 08             	mov    0x8(%ebp),%eax
   116d0:	05 b0 02 00 00       	add    $0x2b0,%eax
   116d5:	83 ec 08             	sub    $0x8,%esp
   116d8:	50                   	push   %eax
   116d9:	68 1c d0 01 00       	push   $0x1d01c
   116de:	e8 bd 71 00 00       	call   188a0 <list_insert_last>
   116e3:	83 c4 10             	add    $0x10,%esp
   116e6:	eb 01                	jmp    116e9 <task_set_sleep+0x3a>
        return;
   116e8:	90                   	nop
}
   116e9:	c9                   	leave  
   116ea:	c3                   	ret    

000116eb <task_set_wakeup>:
/**
 * @brief 将任务从延时队列移除
 * 
 * @param task 
 */
void task_set_wakeup (task_t *task) {
   116eb:	55                   	push   %ebp
   116ec:	89 e5                	mov    %esp,%ebp
   116ee:	83 ec 08             	sub    $0x8,%esp
    list_remove(&task_manager.sleep_list, &task->run_node);
   116f1:	8b 45 08             	mov    0x8(%ebp),%eax
   116f4:	05 b0 02 00 00       	add    $0x2b0,%eax
   116f9:	83 ec 08             	sub    $0x8,%esp
   116fc:	50                   	push   %eax
   116fd:	68 1c d0 01 00       	push   $0x1d01c
   11702:	e8 75 72 00 00       	call   1897c <list_remove>
   11707:	83 c4 10             	add    $0x10,%esp
}
   1170a:	90                   	nop
   1170b:	c9                   	leave  
   1170c:	c3                   	ret    

0001170d <task_current>:

/**
 * @brief 获取当前正在运行的任务
 */
task_t * task_current (void) {
   1170d:	55                   	push   %ebp
   1170e:	89 e5                	mov    %esp,%ebp
    return task_manager.curr_task;
   11710:	a1 00 d0 01 00       	mov    0x1d000,%eax
}
   11715:	5d                   	pop    %ebp
   11716:	c3                   	ret    

00011717 <task_file>:

/**
 * @brief 获取当前进程指定的文件描述符
 */
file_t * task_file (int fd) {
   11717:	55                   	push   %ebp
   11718:	89 e5                	mov    %esp,%ebp
   1171a:	83 ec 10             	sub    $0x10,%esp
    if ((fd >= 0) && (fd < TASK_OFILE_NR)) {
   1171d:	83 7d 08 00          	cmpl   $0x0,0x8(%ebp)
   11721:	78 1f                	js     11742 <task_file+0x2b>
   11723:	83 7d 08 7f          	cmpl   $0x7f,0x8(%ebp)
   11727:	7f 19                	jg     11742 <task_file+0x2b>
        file_t * file = task_current()->file_table[fd];
   11729:	e8 df ff ff ff       	call   1170d <task_current>
   1172e:	89 c2                	mov    %eax,%edx
   11730:	8b 45 08             	mov    0x8(%ebp),%eax
   11733:	83 c0 10             	add    $0x10,%eax
   11736:	8b 44 82 04          	mov    0x4(%edx,%eax,4),%eax
   1173a:	89 45 fc             	mov    %eax,-0x4(%ebp)
        return file;
   1173d:	8b 45 fc             	mov    -0x4(%ebp),%eax
   11740:	eb 05                	jmp    11747 <task_file+0x30>
    }

    return (file_t *)0;
   11742:	b8 00 00 00 00       	mov    $0x0,%eax
}
   11747:	c9                   	leave  
   11748:	c3                   	ret    

00011749 <task_alloc_fd>:

/**
 * @brief 为指定的file分配一个新的文件id
 */
int task_alloc_fd (file_t * file) {
   11749:	55                   	push   %ebp
   1174a:	89 e5                	mov    %esp,%ebp
   1174c:	83 ec 10             	sub    $0x10,%esp
    task_t * task = task_current();
   1174f:	e8 b9 ff ff ff       	call   1170d <task_current>
   11754:	89 45 f8             	mov    %eax,-0x8(%ebp)

    for (int i = 0; i < TASK_OFILE_NR; i++) {
   11757:	c7 45 fc 00 00 00 00 	movl   $0x0,-0x4(%ebp)
   1175e:	eb 2f                	jmp    1178f <task_alloc_fd+0x46>
        file_t * p = task->file_table[i];
   11760:	8b 45 f8             	mov    -0x8(%ebp),%eax
   11763:	8b 55 fc             	mov    -0x4(%ebp),%edx
   11766:	83 c2 10             	add    $0x10,%edx
   11769:	8b 44 90 04          	mov    0x4(%eax,%edx,4),%eax
   1176d:	89 45 f4             	mov    %eax,-0xc(%ebp)
        if (p == (file_t *)0) {
   11770:	83 7d f4 00          	cmpl   $0x0,-0xc(%ebp)
   11774:	75 15                	jne    1178b <task_alloc_fd+0x42>
            task->file_table[i] = file;
   11776:	8b 45 f8             	mov    -0x8(%ebp),%eax
   11779:	8b 55 fc             	mov    -0x4(%ebp),%edx
   1177c:	8d 4a 10             	lea    0x10(%edx),%ecx
   1177f:	8b 55 08             	mov    0x8(%ebp),%edx
   11782:	89 54 88 04          	mov    %edx,0x4(%eax,%ecx,4)
            return i;
   11786:	8b 45 fc             	mov    -0x4(%ebp),%eax
   11789:	eb 0f                	jmp    1179a <task_alloc_fd+0x51>
    for (int i = 0; i < TASK_OFILE_NR; i++) {
   1178b:	83 45 fc 01          	addl   $0x1,-0x4(%ebp)
   1178f:	83 7d fc 7f          	cmpl   $0x7f,-0x4(%ebp)
   11793:	7e cb                	jle    11760 <task_alloc_fd+0x17>
        }
    }

    return -1;
   11795:	b8 ff ff ff ff       	mov    $0xffffffff,%eax
}
   1179a:	c9                   	leave  
   1179b:	c3                   	ret    

0001179c <task_remove_fd>:

/**
 * @brief 移除任务中打开的文件fd
 */
void task_remove_fd (int fd) {
   1179c:	55                   	push   %ebp
   1179d:	89 e5                	mov    %esp,%ebp
    if ((fd >= 0) && (fd < TASK_OFILE_NR)) {
   1179f:	83 7d 08 00          	cmpl   $0x0,0x8(%ebp)
   117a3:	78 1b                	js     117c0 <task_remove_fd+0x24>
   117a5:	83 7d 08 7f          	cmpl   $0x7f,0x8(%ebp)
   117a9:	7f 15                	jg     117c0 <task_remove_fd+0x24>
        task_current()->file_table[fd] = (file_t *)0;
   117ab:	e8 5d ff ff ff       	call   1170d <task_current>
   117b0:	89 c2                	mov    %eax,%edx
   117b2:	8b 45 08             	mov    0x8(%ebp),%eax
   117b5:	83 c0 10             	add    $0x10,%eax
   117b8:	c7 44 82 04 00 00 00 	movl   $0x0,0x4(%edx,%eax,4)
   117bf:	00 
    }
}
   117c0:	90                   	nop
   117c1:	5d                   	pop    %ebp
   117c2:	c3                   	ret    

000117c3 <sys_yield>:

/**
 * @brief 当前任务主动放弃CPU
 */
int sys_yield (void) {
   117c3:	55                   	push   %ebp
   117c4:	89 e5                	mov    %esp,%ebp
   117c6:	83 ec 18             	sub    $0x18,%esp
    irq_state_t state = irq_enter_protection();
   117c9:	e8 44 19 00 00       	call   13112 <irq_enter_protection>
   117ce:	89 45 f4             	mov    %eax,-0xc(%ebp)

    if (list_count(&task_manager.ready_list) > 1) {
   117d1:	83 ec 0c             	sub    $0xc,%esp
   117d4:	68 04 d0 01 00       	push   $0x1d004
   117d9:	e8 2c f8 ff ff       	call   1100a <list_count>
   117de:	83 c4 10             	add    $0x10,%esp
   117e1:	83 f8 01             	cmp    $0x1,%eax
   117e4:	7e 29                	jle    1180f <sys_yield+0x4c>
        task_t * curr_task = task_current();
   117e6:	e8 22 ff ff ff       	call   1170d <task_current>
   117eb:	89 45 f0             	mov    %eax,-0x10(%ebp)

        // 如果队列中还有其它任务，则将当前任务移入到队列尾部
        task_set_block(curr_task);
   117ee:	83 ec 0c             	sub    $0xc,%esp
   117f1:	ff 75 f0             	pushl  -0x10(%ebp)
   117f4:	e8 46 fe ff ff       	call   1163f <task_set_block>
   117f9:	83 c4 10             	add    $0x10,%esp
        task_set_ready(curr_task);
   117fc:	83 ec 0c             	sub    $0xc,%esp
   117ff:	ff 75 f0             	pushl  -0x10(%ebp)
   11802:	e8 04 fe ff ff       	call   1160b <task_set_ready>
   11807:	83 c4 10             	add    $0x10,%esp

        // 切换至下一个任务，在切换完成前要保护，不然可能下一任务
        // 由于某些原因运行后阻塞或删除，再回到这里切换将发生问题
        task_dispatch();
   1180a:	e8 15 00 00 00       	call   11824 <task_dispatch>
    }
    irq_leave_protection(state);
   1180f:	83 ec 0c             	sub    $0xc,%esp
   11812:	ff 75 f4             	pushl  -0xc(%ebp)
   11815:	e8 10 19 00 00       	call   1312a <irq_leave_protection>
   1181a:	83 c4 10             	add    $0x10,%esp

    return 0;
   1181d:	b8 00 00 00 00       	mov    $0x0,%eax
}
   11822:	c9                   	leave  
   11823:	c3                   	ret    

00011824 <task_dispatch>:

/**
 * @brief 进行一次任务调度
 */
void task_dispatch (void) {
   11824:	55                   	push   %ebp
   11825:	89 e5                	mov    %esp,%ebp
   11827:	83 ec 18             	sub    $0x18,%esp
    task_t * to = task_next_run();
   1182a:	e8 3b fe ff ff       	call   1166a <task_next_run>
   1182f:	89 45 f4             	mov    %eax,-0xc(%ebp)
    if (to != task_manager.curr_task) {
   11832:	a1 00 d0 01 00       	mov    0x1d000,%eax
   11837:	39 45 f4             	cmp    %eax,-0xc(%ebp)
   1183a:	74 21                	je     1185d <task_dispatch+0x39>
        task_t * from = task_manager.curr_task;
   1183c:	a1 00 d0 01 00       	mov    0x1d000,%eax
   11841:	89 45 f0             	mov    %eax,-0x10(%ebp)

        task_manager.curr_task = to;
   11844:	8b 45 f4             	mov    -0xc(%ebp),%eax
   11847:	a3 00 d0 01 00       	mov    %eax,0x1d000
        task_switch_from_to(from, to);
   1184c:	83 ec 08             	sub    $0x8,%esp
   1184f:	ff 75 f4             	pushl  -0xc(%ebp)
   11852:	ff 75 f0             	pushl  -0x10(%ebp)
   11855:	e8 ab fb ff ff       	call   11405 <task_switch_from_to>
   1185a:	83 c4 10             	add    $0x10,%esp
    }
}
   1185d:	90                   	nop
   1185e:	c9                   	leave  
   1185f:	c3                   	ret    

00011860 <task_time_tick>:

/**
 * @brief 时间处理
 * 该函数在中断处理函数中调用
 */
void task_time_tick (void) {
   11860:	55                   	push   %ebp
   11861:	89 e5                	mov    %esp,%ebp
   11863:	83 ec 28             	sub    $0x28,%esp
    task_t * curr_task = task_current();
   11866:	e8 a2 fe ff ff       	call   1170d <task_current>
   1186b:	89 45 f0             	mov    %eax,-0x10(%ebp)

    // 时间片的处理
    irq_state_t state = irq_enter_protection();
   1186e:	e8 9f 18 00 00       	call   13112 <irq_enter_protection>
   11873:	89 45 ec             	mov    %eax,-0x14(%ebp)
    if (--curr_task->slice_ticks == 0) {
   11876:	8b 45 f0             	mov    -0x10(%ebp),%eax
   11879:	8b 40 40             	mov    0x40(%eax),%eax
   1187c:	8d 50 ff             	lea    -0x1(%eax),%edx
   1187f:	8b 45 f0             	mov    -0x10(%ebp),%eax
   11882:	89 50 40             	mov    %edx,0x40(%eax)
   11885:	8b 45 f0             	mov    -0x10(%ebp),%eax
   11888:	8b 40 40             	mov    0x40(%eax),%eax
   1188b:	85 c0                	test   %eax,%eax
   1188d:	75 28                	jne    118b7 <task_time_tick+0x57>
        // 时间片用完，重新加载时间片
        // 对于空闲任务，此处减未用
        curr_task->slice_ticks = curr_task->time_slice;
   1188f:	8b 45 f0             	mov    -0x10(%ebp),%eax
   11892:	8b 50 3c             	mov    0x3c(%eax),%edx
   11895:	8b 45 f0             	mov    -0x10(%ebp),%eax
   11898:	89 50 40             	mov    %edx,0x40(%eax)

        // 调整队列的位置到尾部，不用直接操作队列
        task_set_block(curr_task);
   1189b:	83 ec 0c             	sub    $0xc,%esp
   1189e:	ff 75 f0             	pushl  -0x10(%ebp)
   118a1:	e8 99 fd ff ff       	call   1163f <task_set_block>
   118a6:	83 c4 10             	add    $0x10,%esp
        task_set_ready(curr_task);
   118a9:	83 ec 0c             	sub    $0xc,%esp
   118ac:	ff 75 f0             	pushl  -0x10(%ebp)
   118af:	e8 57 fd ff ff       	call   1160b <task_set_ready>
   118b4:	83 c4 10             	add    $0x10,%esp
    }
    
    // 睡眠处理
    list_node_t * curr = list_first(&task_manager.sleep_list);
   118b7:	83 ec 0c             	sub    $0xc,%esp
   118ba:	68 1c d0 01 00       	push   $0x1d01c
   118bf:	e8 51 f7 ff ff       	call   11015 <list_first>
   118c4:	83 c4 10             	add    $0x10,%esp
   118c7:	89 45 f4             	mov    %eax,-0xc(%ebp)
    while (curr) {
   118ca:	eb 64                	jmp    11930 <task_time_tick+0xd0>
        list_node_t * next = list_node_next(curr);
   118cc:	83 ec 0c             	sub    $0xc,%esp
   118cf:	ff 75 f4             	pushl  -0xc(%ebp)
   118d2:	e8 28 f7 ff ff       	call   10fff <list_node_next>
   118d7:	83 c4 10             	add    $0x10,%esp
   118da:	89 45 e8             	mov    %eax,-0x18(%ebp)

        task_t * task = list_node_parent(curr, task_t, run_node);
   118dd:	83 7d f4 00          	cmpl   $0x0,-0xc(%ebp)
   118e1:	74 0a                	je     118ed <task_time_tick+0x8d>
   118e3:	8b 45 f4             	mov    -0xc(%ebp),%eax
   118e6:	2d b0 02 00 00       	sub    $0x2b0,%eax
   118eb:	eb 05                	jmp    118f2 <task_time_tick+0x92>
   118ed:	b8 00 00 00 00       	mov    $0x0,%eax
   118f2:	89 45 e4             	mov    %eax,-0x1c(%ebp)
        if (--task->sleep_ticks == 0) {
   118f5:	8b 45 e4             	mov    -0x1c(%ebp),%eax
   118f8:	8b 40 38             	mov    0x38(%eax),%eax
   118fb:	8d 50 ff             	lea    -0x1(%eax),%edx
   118fe:	8b 45 e4             	mov    -0x1c(%ebp),%eax
   11901:	89 50 38             	mov    %edx,0x38(%eax)
   11904:	8b 45 e4             	mov    -0x1c(%ebp),%eax
   11907:	8b 40 38             	mov    0x38(%eax),%eax
   1190a:	85 c0                	test   %eax,%eax
   1190c:	75 1c                	jne    1192a <task_time_tick+0xca>
            // 延时时间到达，从睡眠队列中移除，送至就绪队列
            task_set_wakeup(task);
   1190e:	83 ec 0c             	sub    $0xc,%esp
   11911:	ff 75 e4             	pushl  -0x1c(%ebp)
   11914:	e8 d2 fd ff ff       	call   116eb <task_set_wakeup>
   11919:	83 c4 10             	add    $0x10,%esp
            task_set_ready(task);
   1191c:	83 ec 0c             	sub    $0xc,%esp
   1191f:	ff 75 e4             	pushl  -0x1c(%ebp)
   11922:	e8 e4 fc ff ff       	call   1160b <task_set_ready>
   11927:	83 c4 10             	add    $0x10,%esp
        }
        curr = next;
   1192a:	8b 45 e8             	mov    -0x18(%ebp),%eax
   1192d:	89 45 f4             	mov    %eax,-0xc(%ebp)
    while (curr) {
   11930:	83 7d f4 00          	cmpl   $0x0,-0xc(%ebp)
   11934:	75 96                	jne    118cc <task_time_tick+0x6c>
    }

    task_dispatch();
   11936:	e8 e9 fe ff ff       	call   11824 <task_dispatch>
    irq_leave_protection(state);
   1193b:	83 ec 0c             	sub    $0xc,%esp
   1193e:	ff 75 ec             	pushl  -0x14(%ebp)
   11941:	e8 e4 17 00 00       	call   1312a <irq_leave_protection>
   11946:	83 c4 10             	add    $0x10,%esp
}
   11949:	90                   	nop
   1194a:	c9                   	leave  
   1194b:	c3                   	ret    

0001194c <alloc_task>:

/**
 * @brief 分配一个任务结构
 */
static task_t * alloc_task (void) {
   1194c:	55                   	push   %ebp
   1194d:	89 e5                	mov    %esp,%ebp
   1194f:	83 ec 18             	sub    $0x18,%esp
    task_t * task = (task_t *)0;
   11952:	c7 45 f4 00 00 00 00 	movl   $0x0,-0xc(%ebp)

    mutex_lock(&task_table_mutex);
   11959:	83 ec 0c             	sub    $0xc,%esp
   1195c:	68 c0 49 03 00       	push   $0x349c0
   11961:	e8 03 64 00 00       	call   17d69 <mutex_lock>
   11966:	83 c4 10             	add    $0x10,%esp
    for (int i = 0; i < TASK_NR; i++) {
   11969:	c7 45 f0 00 00 00 00 	movl   $0x0,-0x10(%ebp)
   11970:	eb 28                	jmp    1199a <alloc_task+0x4e>
        task_t * curr = task_table + i;
   11972:	8b 45 f0             	mov    -0x10(%ebp),%eax
   11975:	69 c0 c8 02 00 00    	imul   $0x2c8,%eax,%eax
   1197b:	05 c0 e5 01 00       	add    $0x1e5c0,%eax
   11980:	89 45 ec             	mov    %eax,-0x14(%ebp)
        if (curr->name[0] == 0) {
   11983:	8b 45 ec             	mov    -0x14(%ebp),%eax
   11986:	0f b6 40 04          	movzbl 0x4(%eax),%eax
   1198a:	84 c0                	test   %al,%al
   1198c:	75 08                	jne    11996 <alloc_task+0x4a>
            task = curr;
   1198e:	8b 45 ec             	mov    -0x14(%ebp),%eax
   11991:	89 45 f4             	mov    %eax,-0xc(%ebp)
            break;
   11994:	eb 0a                	jmp    119a0 <alloc_task+0x54>
    for (int i = 0; i < TASK_NR; i++) {
   11996:	83 45 f0 01          	addl   $0x1,-0x10(%ebp)
   1199a:	83 7d f0 7f          	cmpl   $0x7f,-0x10(%ebp)
   1199e:	7e d2                	jle    11972 <alloc_task+0x26>
        }
    }
    mutex_unlock(&task_table_mutex);
   119a0:	83 ec 0c             	sub    $0xc,%esp
   119a3:	68 c0 49 03 00       	push   $0x349c0
   119a8:	e8 53 64 00 00       	call   17e00 <mutex_unlock>
   119ad:	83 c4 10             	add    $0x10,%esp

    return task;
   119b0:	8b 45 f4             	mov    -0xc(%ebp),%eax
}
   119b3:	c9                   	leave  
   119b4:	c3                   	ret    

000119b5 <free_task>:

/**
 * @brief 释放任务结构
 */
static void free_task (task_t * task) {
   119b5:	55                   	push   %ebp
   119b6:	89 e5                	mov    %esp,%ebp
   119b8:	83 ec 08             	sub    $0x8,%esp
    mutex_lock(&task_table_mutex);
   119bb:	83 ec 0c             	sub    $0xc,%esp
   119be:	68 c0 49 03 00       	push   $0x349c0
   119c3:	e8 a1 63 00 00       	call   17d69 <mutex_lock>
   119c8:	83 c4 10             	add    $0x10,%esp
    task->name[0] = 0;
   119cb:	8b 45 08             	mov    0x8(%ebp),%eax
   119ce:	c6 40 04 00          	movb   $0x0,0x4(%eax)
    mutex_unlock(&task_table_mutex);
   119d2:	83 ec 0c             	sub    $0xc,%esp
   119d5:	68 c0 49 03 00       	push   $0x349c0
   119da:	e8 21 64 00 00       	call   17e00 <mutex_unlock>
   119df:	83 c4 10             	add    $0x10,%esp
}
   119e2:	90                   	nop
   119e3:	c9                   	leave  
   119e4:	c3                   	ret    

000119e5 <sys_msleep>:
/**
 * @brief 任务进入睡眠状态
 * 
 * @param ms 
 */
void sys_msleep (uint32_t ms) {
   119e5:	55                   	push   %ebp
   119e6:	89 e5                	mov    %esp,%ebp
   119e8:	83 ec 18             	sub    $0x18,%esp
    // 至少延时1个tick
    if (ms < OS_TICK_MS) {
   119eb:	83 7d 08 09          	cmpl   $0x9,0x8(%ebp)
   119ef:	77 07                	ja     119f8 <sys_msleep+0x13>
        ms = OS_TICK_MS;
   119f1:	c7 45 08 0a 00 00 00 	movl   $0xa,0x8(%ebp)
    }

    irq_state_t state = irq_enter_protection();
   119f8:	e8 15 17 00 00       	call   13112 <irq_enter_protection>
   119fd:	89 45 f4             	mov    %eax,-0xc(%ebp)

    // 从就绪队列移除，加入睡眠队列
    task_set_block(task_manager.curr_task);
   11a00:	a1 00 d0 01 00       	mov    0x1d000,%eax
   11a05:	83 ec 0c             	sub    $0xc,%esp
   11a08:	50                   	push   %eax
   11a09:	e8 31 fc ff ff       	call   1163f <task_set_block>
   11a0e:	83 c4 10             	add    $0x10,%esp
    task_set_sleep(task_manager.curr_task, (ms + (OS_TICK_MS - 1))/ OS_TICK_MS);
   11a11:	8b 45 08             	mov    0x8(%ebp),%eax
   11a14:	83 c0 09             	add    $0x9,%eax
   11a17:	ba cd cc cc cc       	mov    $0xcccccccd,%edx
   11a1c:	f7 e2                	mul    %edx
   11a1e:	c1 ea 03             	shr    $0x3,%edx
   11a21:	a1 00 d0 01 00       	mov    0x1d000,%eax
   11a26:	83 ec 08             	sub    $0x8,%esp
   11a29:	52                   	push   %edx
   11a2a:	50                   	push   %eax
   11a2b:	e8 7f fc ff ff       	call   116af <task_set_sleep>
   11a30:	83 c4 10             	add    $0x10,%esp
    
    // 进行一次调度
    task_dispatch();
   11a33:	e8 ec fd ff ff       	call   11824 <task_dispatch>

    irq_leave_protection(state);
   11a38:	83 ec 0c             	sub    $0xc,%esp
   11a3b:	ff 75 f4             	pushl  -0xc(%ebp)
   11a3e:	e8 e7 16 00 00       	call   1312a <irq_leave_protection>
   11a43:	83 c4 10             	add    $0x10,%esp
}
   11a46:	90                   	nop
   11a47:	c9                   	leave  
   11a48:	c3                   	ret    

00011a49 <copy_opened_files>:


/**
 * @brief 从当前进程中拷贝已经打开的文件列表
 */
static void copy_opened_files(task_t * child_task) {
   11a49:	55                   	push   %ebp
   11a4a:	89 e5                	mov    %esp,%ebp
   11a4c:	83 ec 18             	sub    $0x18,%esp
    task_t * parent = task_current();
   11a4f:	e8 b9 fc ff ff       	call   1170d <task_current>
   11a54:	89 45 f0             	mov    %eax,-0x10(%ebp)

    for (int i = 0; i < TASK_OFILE_NR; i++) {
   11a57:	c7 45 f4 00 00 00 00 	movl   $0x0,-0xc(%ebp)
   11a5e:	eb 42                	jmp    11aa2 <copy_opened_files+0x59>
        file_t * file = parent->file_table[i];
   11a60:	8b 45 f0             	mov    -0x10(%ebp),%eax
   11a63:	8b 55 f4             	mov    -0xc(%ebp),%edx
   11a66:	83 c2 10             	add    $0x10,%edx
   11a69:	8b 44 90 04          	mov    0x4(%eax,%edx,4),%eax
   11a6d:	89 45 ec             	mov    %eax,-0x14(%ebp)
        if (file) {
   11a70:	83 7d ec 00          	cmpl   $0x0,-0x14(%ebp)
   11a74:	74 28                	je     11a9e <copy_opened_files+0x55>
            file_inc_ref(file);
   11a76:	83 ec 0c             	sub    $0xc,%esp
   11a79:	ff 75 ec             	pushl  -0x14(%ebp)
   11a7c:	e8 fd 54 00 00       	call   16f7e <file_inc_ref>
   11a81:	83 c4 10             	add    $0x10,%esp
            child_task->file_table[i] = parent->file_table[i];
   11a84:	8b 45 f0             	mov    -0x10(%ebp),%eax
   11a87:	8b 55 f4             	mov    -0xc(%ebp),%edx
   11a8a:	83 c2 10             	add    $0x10,%edx
   11a8d:	8b 54 90 04          	mov    0x4(%eax,%edx,4),%edx
   11a91:	8b 45 08             	mov    0x8(%ebp),%eax
   11a94:	8b 4d f4             	mov    -0xc(%ebp),%ecx
   11a97:	83 c1 10             	add    $0x10,%ecx
   11a9a:	89 54 88 04          	mov    %edx,0x4(%eax,%ecx,4)
    for (int i = 0; i < TASK_OFILE_NR; i++) {
   11a9e:	83 45 f4 01          	addl   $0x1,-0xc(%ebp)
   11aa2:	83 7d f4 7f          	cmpl   $0x7f,-0xc(%ebp)
   11aa6:	7e b8                	jle    11a60 <copy_opened_files+0x17>
        }
    }
}
   11aa8:	90                   	nop
   11aa9:	c9                   	leave  
   11aaa:	c3                   	ret    

00011aab <sys_fork>:

/**
 * @brief 创建进程的副本
 */
int sys_fork (void) {
   11aab:	55                   	push   %ebp
   11aac:	89 e5                	mov    %esp,%ebp
   11aae:	83 ec 28             	sub    $0x28,%esp
    task_t * parent_task = task_current();
   11ab1:	e8 57 fc ff ff       	call   1170d <task_current>
   11ab6:	89 45 f4             	mov    %eax,-0xc(%ebp)

    // 分配任务结构
    task_t * child_task = alloc_task();
   11ab9:	e8 8e fe ff ff       	call   1194c <alloc_task>
   11abe:	89 45 f0             	mov    %eax,-0x10(%ebp)
    if (child_task == (task_t *)0) {
   11ac1:	83 7d f0 00          	cmpl   $0x0,-0x10(%ebp)
   11ac5:	0f 84 4f 01 00 00    	je     11c1a <sys_fork+0x16f>
        goto fork_failed;
    }

    syscall_frame_t * frame = (syscall_frame_t *)(parent_task->tss.esp0 - sizeof(syscall_frame_t));
   11acb:	8b 45 f4             	mov    -0xc(%ebp),%eax
   11ace:	8b 80 48 02 00 00    	mov    0x248(%eax),%eax
   11ad4:	83 e8 58             	sub    $0x58,%eax
   11ad7:	89 45 ec             	mov    %eax,-0x14(%ebp)

    // 对子进程进行初始化，并对必要的字段进行调整
    // 其中esp要减去系统调用的总参数字节大小，因为其是通过正常的ret返回, 而没有走系统调用处理的ret(参数个数返回)
    int err = task_init(child_task,  parent_task->name, 0, frame->eip,
                        frame->esp + sizeof(uint32_t)*SYSCALL_PARAM_COUNT);
   11ada:	8b 45 ec             	mov    -0x14(%ebp),%eax
   11add:	8b 40 50             	mov    0x50(%eax),%eax
   11ae0:	8d 50 14             	lea    0x14(%eax),%edx
    int err = task_init(child_task,  parent_task->name, 0, frame->eip,
   11ae3:	8b 45 ec             	mov    -0x14(%ebp),%eax
   11ae6:	8b 40 34             	mov    0x34(%eax),%eax
   11ae9:	89 c1                	mov    %eax,%ecx
   11aeb:	8b 45 f4             	mov    -0xc(%ebp),%eax
   11aee:	83 c0 04             	add    $0x4,%eax
   11af1:	83 ec 0c             	sub    $0xc,%esp
   11af4:	52                   	push   %edx
   11af5:	51                   	push   %ecx
   11af6:	6a 00                	push   $0x0
   11af8:	50                   	push   %eax
   11af9:	ff 75 f0             	pushl  -0x10(%ebp)
   11afc:	e8 fc f6 ff ff       	call   111fd <task_init>
   11b01:	83 c4 20             	add    $0x20,%esp
   11b04:	89 45 e8             	mov    %eax,-0x18(%ebp)
    if (err < 0) {
   11b07:	83 7d e8 00          	cmpl   $0x0,-0x18(%ebp)
   11b0b:	0f 88 0c 01 00 00    	js     11c1d <sys_fork+0x172>
        goto fork_failed;
    }

    // 拷贝打开的文件
    copy_opened_files(child_task);
   11b11:	83 ec 0c             	sub    $0xc,%esp
   11b14:	ff 75 f0             	pushl  -0x10(%ebp)
   11b17:	e8 2d ff ff ff       	call   11a49 <copy_opened_files>
   11b1c:	83 c4 10             	add    $0x10,%esp

    // 从父进程的栈中取部分状态，然后写入tss。
    // 注意检查esp, eip等是否在用户空间范围内，不然会造成page_fault
    tss_t * tss = &child_task->tss;
   11b1f:	8b 45 f0             	mov    -0x10(%ebp),%eax
   11b22:	05 44 02 00 00       	add    $0x244,%eax
   11b27:	89 45 e4             	mov    %eax,-0x1c(%ebp)
    tss->eax = 0;                       // 子进程返回0
   11b2a:	8b 45 e4             	mov    -0x1c(%ebp),%eax
   11b2d:	c7 40 28 00 00 00 00 	movl   $0x0,0x28(%eax)
    tss->ebx = frame->ebx;
   11b34:	8b 45 ec             	mov    -0x14(%ebp),%eax
   11b37:	8b 40 24             	mov    0x24(%eax),%eax
   11b3a:	89 c2                	mov    %eax,%edx
   11b3c:	8b 45 e4             	mov    -0x1c(%ebp),%eax
   11b3f:	89 50 34             	mov    %edx,0x34(%eax)
    tss->ecx = frame->ecx;
   11b42:	8b 45 ec             	mov    -0x14(%ebp),%eax
   11b45:	8b 40 2c             	mov    0x2c(%eax),%eax
   11b48:	89 c2                	mov    %eax,%edx
   11b4a:	8b 45 e4             	mov    -0x1c(%ebp),%eax
   11b4d:	89 50 2c             	mov    %edx,0x2c(%eax)
    tss->edx = frame->edx;
   11b50:	8b 45 ec             	mov    -0x14(%ebp),%eax
   11b53:	8b 40 28             	mov    0x28(%eax),%eax
   11b56:	89 c2                	mov    %eax,%edx
   11b58:	8b 45 e4             	mov    -0x1c(%ebp),%eax
   11b5b:	89 50 30             	mov    %edx,0x30(%eax)
    tss->esi = frame->esi;
   11b5e:	8b 45 ec             	mov    -0x14(%ebp),%eax
   11b61:	8b 40 18             	mov    0x18(%eax),%eax
   11b64:	89 c2                	mov    %eax,%edx
   11b66:	8b 45 e4             	mov    -0x1c(%ebp),%eax
   11b69:	89 50 40             	mov    %edx,0x40(%eax)
    tss->edi = frame->edi;
   11b6c:	8b 45 ec             	mov    -0x14(%ebp),%eax
   11b6f:	8b 40 14             	mov    0x14(%eax),%eax
   11b72:	89 c2                	mov    %eax,%edx
   11b74:	8b 45 e4             	mov    -0x1c(%ebp),%eax
   11b77:	89 50 44             	mov    %edx,0x44(%eax)
    tss->ebp = frame->ebp;
   11b7a:	8b 45 ec             	mov    -0x14(%ebp),%eax
   11b7d:	8b 40 1c             	mov    0x1c(%eax),%eax
   11b80:	89 c2                	mov    %eax,%edx
   11b82:	8b 45 e4             	mov    -0x1c(%ebp),%eax
   11b85:	89 50 3c             	mov    %edx,0x3c(%eax)

    tss->cs = frame->cs;
   11b88:	8b 45 ec             	mov    -0x14(%ebp),%eax
   11b8b:	8b 40 38             	mov    0x38(%eax),%eax
   11b8e:	89 c2                	mov    %eax,%edx
   11b90:	8b 45 e4             	mov    -0x1c(%ebp),%eax
   11b93:	89 50 4c             	mov    %edx,0x4c(%eax)
    tss->ds = frame->ds;
   11b96:	8b 45 ec             	mov    -0x14(%ebp),%eax
   11b99:	8b 40 10             	mov    0x10(%eax),%eax
   11b9c:	89 c2                	mov    %eax,%edx
   11b9e:	8b 45 e4             	mov    -0x1c(%ebp),%eax
   11ba1:	89 50 54             	mov    %edx,0x54(%eax)
    tss->es = frame->es;
   11ba4:	8b 45 ec             	mov    -0x14(%ebp),%eax
   11ba7:	8b 40 0c             	mov    0xc(%eax),%eax
   11baa:	89 c2                	mov    %eax,%edx
   11bac:	8b 45 e4             	mov    -0x1c(%ebp),%eax
   11baf:	89 50 48             	mov    %edx,0x48(%eax)
    tss->fs = frame->fs;
   11bb2:	8b 45 ec             	mov    -0x14(%ebp),%eax
   11bb5:	8b 40 08             	mov    0x8(%eax),%eax
   11bb8:	89 c2                	mov    %eax,%edx
   11bba:	8b 45 e4             	mov    -0x1c(%ebp),%eax
   11bbd:	89 50 58             	mov    %edx,0x58(%eax)
    tss->gs = frame->gs;
   11bc0:	8b 45 ec             	mov    -0x14(%ebp),%eax
   11bc3:	8b 40 04             	mov    0x4(%eax),%eax
   11bc6:	89 c2                	mov    %eax,%edx
   11bc8:	8b 45 e4             	mov    -0x1c(%ebp),%eax
   11bcb:	89 50 5c             	mov    %edx,0x5c(%eax)
    tss->eflags = frame->eflags;
   11bce:	8b 45 ec             	mov    -0x14(%ebp),%eax
   11bd1:	8b 00                	mov    (%eax),%eax
   11bd3:	89 c2                	mov    %eax,%edx
   11bd5:	8b 45 e4             	mov    -0x1c(%ebp),%eax
   11bd8:	89 50 24             	mov    %edx,0x24(%eax)

    child_task->parent = parent_task;
   11bdb:	8b 45 f0             	mov    -0x10(%ebp),%eax
   11bde:	8b 55 f4             	mov    -0xc(%ebp),%edx
   11be1:	89 50 28             	mov    %edx,0x28(%eax)

    // 复制父进程的内存空间到子进程
    if ((child_task->tss.cr3 = memory_copy_uvm(parent_task->tss.cr3)) < 0) {
   11be4:	8b 45 f4             	mov    -0xc(%ebp),%eax
   11be7:	8b 80 60 02 00 00    	mov    0x260(%eax),%eax
   11bed:	83 ec 0c             	sub    $0xc,%esp
   11bf0:	50                   	push   %eax
   11bf1:	e8 50 ed ff ff       	call   10946 <memory_copy_uvm>
   11bf6:	83 c4 10             	add    $0x10,%esp
   11bf9:	89 c2                	mov    %eax,%edx
   11bfb:	8b 45 f0             	mov    -0x10(%ebp),%eax
   11bfe:	89 90 60 02 00 00    	mov    %edx,0x260(%eax)
        goto fork_failed;
    }

    // 创建成功，返回子进程的pid
    task_start(child_task);
   11c04:	83 ec 0c             	sub    $0xc,%esp
   11c07:	ff 75 f0             	pushl  -0x10(%ebp)
   11c0a:	e8 3a f7 ff ff       	call   11349 <task_start>
   11c0f:	83 c4 10             	add    $0x10,%esp
    return child_task->pid;
   11c12:	8b 45 f0             	mov    -0x10(%ebp),%eax
   11c15:	8b 40 24             	mov    0x24(%eax),%eax
   11c18:	eb 2b                	jmp    11c45 <sys_fork+0x19a>
        goto fork_failed;
   11c1a:	90                   	nop
   11c1b:	eb 01                	jmp    11c1e <sys_fork+0x173>
        goto fork_failed;
   11c1d:	90                   	nop
fork_failed:
    if (child_task) {
   11c1e:	83 7d f0 00          	cmpl   $0x0,-0x10(%ebp)
   11c22:	74 1c                	je     11c40 <sys_fork+0x195>
        task_uninit (child_task);
   11c24:	83 ec 0c             	sub    $0xc,%esp
   11c27:	ff 75 f0             	pushl  -0x10(%ebp)
   11c2a:	e8 47 f7 ff ff       	call   11376 <task_uninit>
   11c2f:	83 c4 10             	add    $0x10,%esp
        free_task(child_task);
   11c32:	83 ec 0c             	sub    $0xc,%esp
   11c35:	ff 75 f0             	pushl  -0x10(%ebp)
   11c38:	e8 78 fd ff ff       	call   119b5 <free_task>
   11c3d:	83 c4 10             	add    $0x10,%esp
    }
    return -1;
   11c40:	b8 ff ff ff ff       	mov    $0xffffffff,%eax
}
   11c45:	c9                   	leave  
   11c46:	c3                   	ret    

00011c47 <load_phdr>:

/**
 * @brief 加载一个程序表头的数据到内存中
 */
static int load_phdr(int file, Elf32_Phdr * phdr, uint32_t page_dir) {
   11c47:	55                   	push   %ebp
   11c48:	89 e5                	mov    %esp,%ebp
   11c4a:	83 ec 28             	sub    $0x28,%esp
    // 生成的ELF文件要求是页边界对齐的
    ASSERT((phdr->p_vaddr & (MEM_PAGE_SIZE - 1)) == 0);
   11c4d:	8b 45 0c             	mov    0xc(%ebp),%eax
   11c50:	8b 40 08             	mov    0x8(%eax),%eax
   11c53:	25 ff 0f 00 00       	and    $0xfff,%eax
   11c58:	85 c0                	test   %eax,%eax
   11c5a:	74 1c                	je     11c78 <load_phdr+0x31>
   11c5c:	68 0c 8f 01 00       	push   $0x18f0c
   11c61:	68 20 90 01 00       	push   $0x19020
   11c66:	68 2b 02 00 00       	push   $0x22b
   11c6b:	68 9c 8e 01 00       	push   $0x18e9c
   11c70:	e8 5e 6b 00 00       	call   187d3 <panic>
   11c75:	83 c4 10             	add    $0x10,%esp

    // 分配空间
    int err = memory_alloc_for_page_dir(page_dir, phdr->p_vaddr, phdr->p_memsz, PTE_P | PTE_U | PTE_W);
   11c78:	8b 45 0c             	mov    0xc(%ebp),%eax
   11c7b:	8b 50 14             	mov    0x14(%eax),%edx
   11c7e:	8b 45 0c             	mov    0xc(%ebp),%eax
   11c81:	8b 40 08             	mov    0x8(%eax),%eax
   11c84:	6a 07                	push   $0x7
   11c86:	52                   	push   %edx
   11c87:	50                   	push   %eax
   11c88:	ff 75 10             	pushl  0x10(%ebp)
   11c8b:	e8 d4 ee ff ff       	call   10b64 <memory_alloc_for_page_dir>
   11c90:	83 c4 10             	add    $0x10,%esp
   11c93:	89 45 ec             	mov    %eax,-0x14(%ebp)
    if (err < 0) {
   11c96:	83 7d ec 00          	cmpl   $0x0,-0x14(%ebp)
   11c9a:	79 1a                	jns    11cb6 <load_phdr+0x6f>
        log_printf("no memory");
   11c9c:	83 ec 0c             	sub    $0xc,%esp
   11c9f:	68 37 8f 01 00       	push   $0x18f37
   11ca4:	e8 87 6d 00 00       	call   18a30 <log_printf>
   11ca9:	83 c4 10             	add    $0x10,%esp
        return -1;
   11cac:	b8 ff ff ff ff       	mov    $0xffffffff,%eax
   11cb1:	e9 b8 00 00 00       	jmp    11d6e <load_phdr+0x127>
    }

    // 调整当前的读写位置
    if (sys_lseek(file, phdr->p_offset, 0) < 0) {
   11cb6:	8b 45 0c             	mov    0xc(%ebp),%eax
   11cb9:	8b 40 04             	mov    0x4(%eax),%eax
   11cbc:	83 ec 04             	sub    $0x4,%esp
   11cbf:	6a 00                	push   $0x0
   11cc1:	50                   	push   %eax
   11cc2:	ff 75 08             	pushl  0x8(%ebp)
   11cc5:	e8 b1 5b 00 00       	call   1787b <sys_lseek>
   11cca:	83 c4 10             	add    $0x10,%esp
   11ccd:	85 c0                	test   %eax,%eax
   11ccf:	79 1a                	jns    11ceb <load_phdr+0xa4>
        log_printf("read file failed");
   11cd1:	83 ec 0c             	sub    $0xc,%esp
   11cd4:	68 41 8f 01 00       	push   $0x18f41
   11cd9:	e8 52 6d 00 00       	call   18a30 <log_printf>
   11cde:	83 c4 10             	add    $0x10,%esp
        return -1;
   11ce1:	b8 ff ff ff ff       	mov    $0xffffffff,%eax
   11ce6:	e9 83 00 00 00       	jmp    11d6e <load_phdr+0x127>
    }

    // 为段分配所有的内存空间.后续操作如果失败，将在上层释放
    // 简单起见，设置成可写模式，也许可考虑根据phdr->flags设置成只读
    // 因为没有找到该值的详细定义，所以没有加上
    uint32_t vaddr = phdr->p_vaddr;
   11ceb:	8b 45 0c             	mov    0xc(%ebp),%eax
   11cee:	8b 40 08             	mov    0x8(%eax),%eax
   11cf1:	89 45 f4             	mov    %eax,-0xc(%ebp)
    uint32_t size = phdr->p_filesz;
   11cf4:	8b 45 0c             	mov    0xc(%ebp),%eax
   11cf7:	8b 40 10             	mov    0x10(%eax),%eax
   11cfa:	89 45 f0             	mov    %eax,-0x10(%ebp)
    while (size > 0) {
   11cfd:	eb 64                	jmp    11d63 <load_phdr+0x11c>
        int curr_size = (size > MEM_PAGE_SIZE) ? MEM_PAGE_SIZE : size;
   11cff:	b8 00 10 00 00       	mov    $0x1000,%eax
   11d04:	81 7d f0 00 10 00 00 	cmpl   $0x1000,-0x10(%ebp)
   11d0b:	0f 46 45 f0          	cmovbe -0x10(%ebp),%eax
   11d0f:	89 45 e8             	mov    %eax,-0x18(%ebp)

        uint32_t paddr = memory_get_paddr(page_dir, vaddr);
   11d12:	83 ec 08             	sub    $0x8,%esp
   11d15:	ff 75 f4             	pushl  -0xc(%ebp)
   11d18:	ff 75 10             	pushl  0x10(%ebp)
   11d1b:	e8 7b ed ff ff       	call   10a9b <memory_get_paddr>
   11d20:	83 c4 10             	add    $0x10,%esp
   11d23:	89 45 e4             	mov    %eax,-0x1c(%ebp)

        // 注意，这里用的页表仍然是当前的
        if (sys_read(file, (char *)paddr, curr_size) <  curr_size) {
   11d26:	8b 45 e4             	mov    -0x1c(%ebp),%eax
   11d29:	83 ec 04             	sub    $0x4,%esp
   11d2c:	ff 75 e8             	pushl  -0x18(%ebp)
   11d2f:	50                   	push   %eax
   11d30:	ff 75 08             	pushl  0x8(%ebp)
   11d33:	e8 ba 59 00 00       	call   176f2 <sys_read>
   11d38:	83 c4 10             	add    $0x10,%esp
   11d3b:	39 45 e8             	cmp    %eax,-0x18(%ebp)
   11d3e:	7e 17                	jle    11d57 <load_phdr+0x110>
            log_printf("read file failed");
   11d40:	83 ec 0c             	sub    $0xc,%esp
   11d43:	68 41 8f 01 00       	push   $0x18f41
   11d48:	e8 e3 6c 00 00       	call   18a30 <log_printf>
   11d4d:	83 c4 10             	add    $0x10,%esp
            return -1;
   11d50:	b8 ff ff ff ff       	mov    $0xffffffff,%eax
   11d55:	eb 17                	jmp    11d6e <load_phdr+0x127>
        }

        size -= curr_size;
   11d57:	8b 45 e8             	mov    -0x18(%ebp),%eax
   11d5a:	29 45 f0             	sub    %eax,-0x10(%ebp)
        vaddr += curr_size;
   11d5d:	8b 45 e8             	mov    -0x18(%ebp),%eax
   11d60:	01 45 f4             	add    %eax,-0xc(%ebp)
    while (size > 0) {
   11d63:	83 7d f0 00          	cmpl   $0x0,-0x10(%ebp)
   11d67:	75 96                	jne    11cff <load_phdr+0xb8>

    // bss区考虑由crt0和cstart自行清0，这样更简单一些
    // 如果在上边进行处理，需要考虑到有可能的跨页表填充数据，懒得写代码
    // 或者也可修改memory_alloc_for_page_dir，增加分配时清0页表，但这样开销较大
    // 所以，直接放在cstart哐crt0中直接内存填0，比较简单
    return 0;
   11d69:	b8 00 00 00 00       	mov    $0x0,%eax
}
   11d6e:	c9                   	leave  
   11d6f:	c3                   	ret    

00011d70 <load_elf_file>:

/**
 * @brief 加载elf文件到内存中
 */
static uint32_t load_elf_file (task_t * task, const char * name, uint32_t page_dir) {
   11d70:	55                   	push   %ebp
   11d71:	89 e5                	mov    %esp,%ebp
   11d73:	83 ec 78             	sub    $0x78,%esp
    Elf32_Ehdr elf_hdr;
    Elf32_Phdr elf_phdr;

    // 以只读方式打开
    int file = sys_open(name, 0);   // todo: flags暂时用0替代
   11d76:	83 ec 08             	sub    $0x8,%esp
   11d79:	6a 00                	push   $0x0
   11d7b:	ff 75 0c             	pushl  0xc(%ebp)
   11d7e:	e8 cb 56 00 00       	call   1744e <sys_open>
   11d83:	83 c4 10             	add    $0x10,%esp
   11d86:	89 45 ec             	mov    %eax,-0x14(%ebp)
    if (file < 0) {
   11d89:	83 7d ec 00          	cmpl   $0x0,-0x14(%ebp)
   11d8d:	79 18                	jns    11da7 <load_elf_file+0x37>
        log_printf("open file failed.%s", name);
   11d8f:	83 ec 08             	sub    $0x8,%esp
   11d92:	ff 75 0c             	pushl  0xc(%ebp)
   11d95:	68 52 8f 01 00       	push   $0x18f52
   11d9a:	e8 91 6c 00 00       	call   18a30 <log_printf>
   11d9f:	83 c4 10             	add    $0x10,%esp
        goto load_failed;
   11da2:	e9 c1 01 00 00       	jmp    11f68 <load_elf_file+0x1f8>
    }

    // 先读取文件头
    int cnt = sys_read(file, (char *)&elf_hdr, sizeof(Elf32_Ehdr));
   11da7:	83 ec 04             	sub    $0x4,%esp
   11daa:	6a 34                	push   $0x34
   11dac:	8d 45 b0             	lea    -0x50(%ebp),%eax
   11daf:	50                   	push   %eax
   11db0:	ff 75 ec             	pushl  -0x14(%ebp)
   11db3:	e8 3a 59 00 00       	call   176f2 <sys_read>
   11db8:	83 c4 10             	add    $0x10,%esp
   11dbb:	89 45 e8             	mov    %eax,-0x18(%ebp)
    if (cnt < sizeof(Elf32_Ehdr)) {
   11dbe:	8b 45 e8             	mov    -0x18(%ebp),%eax
   11dc1:	83 f8 33             	cmp    $0x33,%eax
   11dc4:	77 18                	ja     11dde <load_elf_file+0x6e>
        log_printf("elf hdr too small. size=%d", cnt);
   11dc6:	83 ec 08             	sub    $0x8,%esp
   11dc9:	ff 75 e8             	pushl  -0x18(%ebp)
   11dcc:	68 66 8f 01 00       	push   $0x18f66
   11dd1:	e8 5a 6c 00 00       	call   18a30 <log_printf>
   11dd6:	83 c4 10             	add    $0x10,%esp
        goto load_failed;
   11dd9:	e9 8a 01 00 00       	jmp    11f68 <load_elf_file+0x1f8>
    }

    // 做点必要性的检查。当然可以再做其它检查
    if ((elf_hdr.e_ident[0] != ELF_MAGIC) || (elf_hdr.e_ident[1] != 'E')
   11dde:	0f b6 45 b0          	movzbl -0x50(%ebp),%eax
   11de2:	3c 7f                	cmp    $0x7f,%al
   11de4:	75 18                	jne    11dfe <load_elf_file+0x8e>
   11de6:	0f b6 45 b1          	movzbl -0x4f(%ebp),%eax
   11dea:	3c 45                	cmp    $0x45,%al
   11dec:	75 10                	jne    11dfe <load_elf_file+0x8e>
        || (elf_hdr.e_ident[2] != 'L') || (elf_hdr.e_ident[3] != 'F')) {
   11dee:	0f b6 45 b2          	movzbl -0x4e(%ebp),%eax
   11df2:	3c 4c                	cmp    $0x4c,%al
   11df4:	75 08                	jne    11dfe <load_elf_file+0x8e>
   11df6:	0f b6 45 b3          	movzbl -0x4d(%ebp),%eax
   11dfa:	3c 46                	cmp    $0x46,%al
   11dfc:	74 15                	je     11e13 <load_elf_file+0xa3>
        log_printf("check elf indent failed.");
   11dfe:	83 ec 0c             	sub    $0xc,%esp
   11e01:	68 81 8f 01 00       	push   $0x18f81
   11e06:	e8 25 6c 00 00       	call   18a30 <log_printf>
   11e0b:	83 c4 10             	add    $0x10,%esp
        goto load_failed;
   11e0e:	e9 55 01 00 00       	jmp    11f68 <load_elf_file+0x1f8>
    }

    // 必须是可执行文件和针对386处理器的类型，且有入口
    if ((elf_hdr.e_type != ET_EXEC) || (elf_hdr.e_machine != ET_386) || (elf_hdr.e_entry == 0)) {
   11e13:	0f b7 45 c0          	movzwl -0x40(%ebp),%eax
   11e17:	66 83 f8 02          	cmp    $0x2,%ax
   11e1b:	75 11                	jne    11e2e <load_elf_file+0xbe>
   11e1d:	0f b7 45 c2          	movzwl -0x3e(%ebp),%eax
   11e21:	66 83 f8 03          	cmp    $0x3,%ax
   11e25:	75 07                	jne    11e2e <load_elf_file+0xbe>
   11e27:	8b 45 c8             	mov    -0x38(%ebp),%eax
   11e2a:	85 c0                	test   %eax,%eax
   11e2c:	75 15                	jne    11e43 <load_elf_file+0xd3>
        log_printf("check elf type or entry failed.");
   11e2e:	83 ec 0c             	sub    $0xc,%esp
   11e31:	68 9c 8f 01 00       	push   $0x18f9c
   11e36:	e8 f5 6b 00 00       	call   18a30 <log_printf>
   11e3b:	83 c4 10             	add    $0x10,%esp
        goto load_failed;
   11e3e:	e9 25 01 00 00       	jmp    11f68 <load_elf_file+0x1f8>
    }

    // 必须有程序头部
    if ((elf_hdr.e_phentsize == 0) || (elf_hdr.e_phoff == 0)) {
   11e43:	0f b7 45 da          	movzwl -0x26(%ebp),%eax
   11e47:	66 85 c0             	test   %ax,%ax
   11e4a:	74 07                	je     11e53 <load_elf_file+0xe3>
   11e4c:	8b 45 cc             	mov    -0x34(%ebp),%eax
   11e4f:	85 c0                	test   %eax,%eax
   11e51:	75 15                	jne    11e68 <load_elf_file+0xf8>
        log_printf("none programe header");
   11e53:	83 ec 0c             	sub    $0xc,%esp
   11e56:	68 bc 8f 01 00       	push   $0x18fbc
   11e5b:	e8 d0 6b 00 00       	call   18a30 <log_printf>
   11e60:	83 c4 10             	add    $0x10,%esp
        goto load_failed;
   11e63:	e9 00 01 00 00       	jmp    11f68 <load_elf_file+0x1f8>
    }

    // 然后从中加载程序头，将内容拷贝到相应的位置
    uint32_t e_phoff = elf_hdr.e_phoff;
   11e68:	8b 45 cc             	mov    -0x34(%ebp),%eax
   11e6b:	89 45 f4             	mov    %eax,-0xc(%ebp)
    for (int i = 0; i < elf_hdr.e_phnum; i++, e_phoff += elf_hdr.e_phentsize) {
   11e6e:	c7 45 f0 00 00 00 00 	movl   $0x0,-0x10(%ebp)
   11e75:	e9 cb 00 00 00       	jmp    11f45 <load_elf_file+0x1d5>
        if (sys_lseek(file, e_phoff, 0) < 0) {
   11e7a:	8b 45 f4             	mov    -0xc(%ebp),%eax
   11e7d:	83 ec 04             	sub    $0x4,%esp
   11e80:	6a 00                	push   $0x0
   11e82:	50                   	push   %eax
   11e83:	ff 75 ec             	pushl  -0x14(%ebp)
   11e86:	e8 f0 59 00 00       	call   1787b <sys_lseek>
   11e8b:	83 c4 10             	add    $0x10,%esp
   11e8e:	85 c0                	test   %eax,%eax
   11e90:	79 15                	jns    11ea7 <load_elf_file+0x137>
            log_printf("read file failed");
   11e92:	83 ec 0c             	sub    $0xc,%esp
   11e95:	68 41 8f 01 00       	push   $0x18f41
   11e9a:	e8 91 6b 00 00       	call   18a30 <log_printf>
   11e9f:	83 c4 10             	add    $0x10,%esp
            goto load_failed;
   11ea2:	e9 c1 00 00 00       	jmp    11f68 <load_elf_file+0x1f8>
        }

        // 读取程序头后解析，这里不用读取到新进程的页表中，因为只是临时使用下
        cnt = sys_read(file, (char *)&elf_phdr, sizeof(Elf32_Phdr));
   11ea7:	83 ec 04             	sub    $0x4,%esp
   11eaa:	6a 20                	push   $0x20
   11eac:	8d 45 90             	lea    -0x70(%ebp),%eax
   11eaf:	50                   	push   %eax
   11eb0:	ff 75 ec             	pushl  -0x14(%ebp)
   11eb3:	e8 3a 58 00 00       	call   176f2 <sys_read>
   11eb8:	83 c4 10             	add    $0x10,%esp
   11ebb:	89 45 e8             	mov    %eax,-0x18(%ebp)
        if (cnt < sizeof(Elf32_Phdr)) {
   11ebe:	8b 45 e8             	mov    -0x18(%ebp),%eax
   11ec1:	83 f8 1f             	cmp    $0x1f,%eax
   11ec4:	77 15                	ja     11edb <load_elf_file+0x16b>
            log_printf("read file failed");
   11ec6:	83 ec 0c             	sub    $0xc,%esp
   11ec9:	68 41 8f 01 00       	push   $0x18f41
   11ece:	e8 5d 6b 00 00       	call   18a30 <log_printf>
   11ed3:	83 c4 10             	add    $0x10,%esp
            goto load_failed;
   11ed6:	e9 8d 00 00 00       	jmp    11f68 <load_elf_file+0x1f8>
        }

        // 简单做一些检查，如有必要，可自行加更多
        // 主要判断是否是可加载的类型，并且要求加载的地址必须是用户空间
        if ((elf_phdr.p_type != PT_LOAD) || (elf_phdr.p_vaddr < MEMORY_TASK_BASE)) {
   11edb:	8b 45 90             	mov    -0x70(%ebp),%eax
   11ede:	83 f8 01             	cmp    $0x1,%eax
   11ee1:	75 53                	jne    11f36 <load_elf_file+0x1c6>
   11ee3:	8b 45 98             	mov    -0x68(%ebp),%eax
   11ee6:	85 c0                	test   %eax,%eax
   11ee8:	79 4c                	jns    11f36 <load_elf_file+0x1c6>
           continue;
        }

        // 加载当前程序头
        int err = load_phdr(file, &elf_phdr, page_dir);
   11eea:	83 ec 04             	sub    $0x4,%esp
   11eed:	ff 75 10             	pushl  0x10(%ebp)
   11ef0:	8d 45 90             	lea    -0x70(%ebp),%eax
   11ef3:	50                   	push   %eax
   11ef4:	ff 75 ec             	pushl  -0x14(%ebp)
   11ef7:	e8 4b fd ff ff       	call   11c47 <load_phdr>
   11efc:	83 c4 10             	add    $0x10,%esp
   11eff:	89 45 e4             	mov    %eax,-0x1c(%ebp)
        if (err < 0) {
   11f02:	83 7d e4 00          	cmpl   $0x0,-0x1c(%ebp)
   11f06:	79 12                	jns    11f1a <load_elf_file+0x1aa>
            log_printf("load program hdr failed");
   11f08:	83 ec 0c             	sub    $0xc,%esp
   11f0b:	68 d1 8f 01 00       	push   $0x18fd1
   11f10:	e8 1b 6b 00 00       	call   18a30 <log_printf>
   11f15:	83 c4 10             	add    $0x10,%esp
            goto load_failed;
   11f18:	eb 4e                	jmp    11f68 <load_elf_file+0x1f8>
        }

        // 简单起见，不检查了，以最后的地址为bss的地址
        task->heap_start = elf_phdr.p_vaddr + elf_phdr.p_memsz;
   11f1a:	8b 55 98             	mov    -0x68(%ebp),%edx
   11f1d:	8b 45 a4             	mov    -0x5c(%ebp),%eax
   11f20:	01 c2                	add    %eax,%edx
   11f22:	8b 45 08             	mov    0x8(%ebp),%eax
   11f25:	89 50 2c             	mov    %edx,0x2c(%eax)
        task->heap_end = task->heap_start;
   11f28:	8b 45 08             	mov    0x8(%ebp),%eax
   11f2b:	8b 50 2c             	mov    0x2c(%eax),%edx
   11f2e:	8b 45 08             	mov    0x8(%ebp),%eax
   11f31:	89 50 30             	mov    %edx,0x30(%eax)
   11f34:	eb 01                	jmp    11f37 <load_elf_file+0x1c7>
           continue;
   11f36:	90                   	nop
    for (int i = 0; i < elf_hdr.e_phnum; i++, e_phoff += elf_hdr.e_phentsize) {
   11f37:	83 45 f0 01          	addl   $0x1,-0x10(%ebp)
   11f3b:	0f b7 45 da          	movzwl -0x26(%ebp),%eax
   11f3f:	0f b7 c0             	movzwl %ax,%eax
   11f42:	01 45 f4             	add    %eax,-0xc(%ebp)
   11f45:	0f b7 45 dc          	movzwl -0x24(%ebp),%eax
   11f49:	0f b7 c0             	movzwl %ax,%eax
   11f4c:	39 45 f0             	cmp    %eax,-0x10(%ebp)
   11f4f:	0f 8c 25 ff ff ff    	jl     11e7a <load_elf_file+0x10a>
   }

    sys_close(file);
   11f55:	83 ec 0c             	sub    $0xc,%esp
   11f58:	ff 75 ec             	pushl  -0x14(%ebp)
   11f5b:	e8 b0 59 00 00       	call   17910 <sys_close>
   11f60:	83 c4 10             	add    $0x10,%esp
    return elf_hdr.e_entry;
   11f63:	8b 45 c8             	mov    -0x38(%ebp),%eax
   11f66:	eb 19                	jmp    11f81 <load_elf_file+0x211>

load_failed:
    if (file >= 0) {
   11f68:	83 7d ec 00          	cmpl   $0x0,-0x14(%ebp)
   11f6c:	78 0e                	js     11f7c <load_elf_file+0x20c>
        sys_close(file);
   11f6e:	83 ec 0c             	sub    $0xc,%esp
   11f71:	ff 75 ec             	pushl  -0x14(%ebp)
   11f74:	e8 97 59 00 00       	call   17910 <sys_close>
   11f79:	83 c4 10             	add    $0x10,%esp
    }

    return 0;
   11f7c:	b8 00 00 00 00       	mov    $0x0,%eax
}
   11f81:	c9                   	leave  
   11f82:	c3                   	ret    

00011f83 <copy_args>:

/**
 * @brief 复制进程参数到栈中。注意argv和env指向的空间在另一个页表里
 */
static int copy_args (char * to, uint32_t page_dir, int argc, char **argv) {
   11f83:	55                   	push   %ebp
   11f84:	89 e5                	mov    %esp,%ebp
   11f86:	83 ec 38             	sub    $0x38,%esp
    // 在stack_top中依次写入argc, argv指针，参数字符串
    task_args_t task_args;
    task_args.argc = argc;
   11f89:	8b 45 10             	mov    0x10(%ebp),%eax
   11f8c:	89 45 d8             	mov    %eax,-0x28(%ebp)
    task_args.argv = (char **)(to + sizeof(task_args_t));
   11f8f:	8b 45 08             	mov    0x8(%ebp),%eax
   11f92:	83 c0 0c             	add    $0xc,%eax
   11f95:	89 45 dc             	mov    %eax,-0x24(%ebp)

    // 复制各项参数, 跳过task_args和参数表
    // 各argv参数写入的内存空间
    char * dest_arg = to + sizeof(task_args_t) + sizeof(char *) * (argc + 1);   // 留出结束符
   11f98:	8b 45 10             	mov    0x10(%ebp),%eax
   11f9b:	83 c0 04             	add    $0x4,%eax
   11f9e:	8d 14 85 00 00 00 00 	lea    0x0(,%eax,4),%edx
   11fa5:	8b 45 08             	mov    0x8(%ebp),%eax
   11fa8:	01 d0                	add    %edx,%eax
   11faa:	89 45 f4             	mov    %eax,-0xc(%ebp)
    
    // argv表
    char ** dest_argv_tb = (char **)memory_get_paddr(page_dir, (uint32_t)(to + sizeof(task_args_t)));
   11fad:	8b 45 08             	mov    0x8(%ebp),%eax
   11fb0:	83 c0 0c             	add    $0xc,%eax
   11fb3:	83 ec 08             	sub    $0x8,%esp
   11fb6:	50                   	push   %eax
   11fb7:	ff 75 0c             	pushl  0xc(%ebp)
   11fba:	e8 dc ea ff ff       	call   10a9b <memory_get_paddr>
   11fbf:	83 c4 10             	add    $0x10,%esp
   11fc2:	89 45 ec             	mov    %eax,-0x14(%ebp)
    ASSERT(dest_argv_tb != 0);
   11fc5:	83 7d ec 00          	cmpl   $0x0,-0x14(%ebp)
   11fc9:	75 1c                	jne    11fe7 <copy_args+0x64>
   11fcb:	68 e9 8f 01 00       	push   $0x18fe9
   11fd0:	68 2c 90 01 00       	push   $0x1902c
   11fd5:	68 b8 02 00 00       	push   $0x2b8
   11fda:	68 9c 8e 01 00       	push   $0x18e9c
   11fdf:	e8 ef 67 00 00       	call   187d3 <panic>
   11fe4:	83 c4 10             	add    $0x10,%esp

    for (int i = 0; i < argc; i++) {
   11fe7:	c7 45 f0 00 00 00 00 	movl   $0x0,-0x10(%ebp)
   11fee:	e9 82 00 00 00       	jmp    12075 <copy_args+0xf2>
        char * from = argv[i];
   11ff3:	8b 45 f0             	mov    -0x10(%ebp),%eax
   11ff6:	8d 14 85 00 00 00 00 	lea    0x0(,%eax,4),%edx
   11ffd:	8b 45 14             	mov    0x14(%ebp),%eax
   12000:	01 d0                	add    %edx,%eax
   12002:	8b 00                	mov    (%eax),%eax
   12004:	89 45 e8             	mov    %eax,-0x18(%ebp)

        // 不能用kernel_strcpy，因为to和argv不在一个页表里
        int len = kernel_strlen(from) + 1;   // 包含结束符
   12007:	83 ec 0c             	sub    $0xc,%esp
   1200a:	ff 75 e8             	pushl  -0x18(%ebp)
   1200d:	e8 70 63 00 00       	call   18382 <kernel_strlen>
   12012:	83 c4 10             	add    $0x10,%esp
   12015:	83 c0 01             	add    $0x1,%eax
   12018:	89 45 e4             	mov    %eax,-0x1c(%ebp)
        int err = memory_copy_uvm_data((uint32_t)dest_arg, page_dir, (uint32_t)from, len);
   1201b:	8b 4d e4             	mov    -0x1c(%ebp),%ecx
   1201e:	8b 55 e8             	mov    -0x18(%ebp),%edx
   12021:	8b 45 f4             	mov    -0xc(%ebp),%eax
   12024:	51                   	push   %ecx
   12025:	52                   	push   %edx
   12026:	ff 75 0c             	pushl  0xc(%ebp)
   12029:	50                   	push   %eax
   1202a:	e8 b2 ea ff ff       	call   10ae1 <memory_copy_uvm_data>
   1202f:	83 c4 10             	add    $0x10,%esp
   12032:	89 45 e0             	mov    %eax,-0x20(%ebp)
        ASSERT(err >= 0);
   12035:	83 7d e0 00          	cmpl   $0x0,-0x20(%ebp)
   12039:	79 1c                	jns    12057 <copy_args+0xd4>
   1203b:	68 fb 8f 01 00       	push   $0x18ffb
   12040:	68 2c 90 01 00       	push   $0x1902c
   12045:	68 c0 02 00 00       	push   $0x2c0
   1204a:	68 9c 8e 01 00       	push   $0x18e9c
   1204f:	e8 7f 67 00 00       	call   187d3 <panic>
   12054:	83 c4 10             	add    $0x10,%esp

        // 关联ar
        dest_argv_tb[i] = dest_arg;
   12057:	8b 45 f0             	mov    -0x10(%ebp),%eax
   1205a:	8d 14 85 00 00 00 00 	lea    0x0(,%eax,4),%edx
   12061:	8b 45 ec             	mov    -0x14(%ebp),%eax
   12064:	01 c2                	add    %eax,%edx
   12066:	8b 45 f4             	mov    -0xc(%ebp),%eax
   12069:	89 02                	mov    %eax,(%edx)

        // 记录下位置后，复制的位置前移
        dest_arg += len;
   1206b:	8b 45 e4             	mov    -0x1c(%ebp),%eax
   1206e:	01 45 f4             	add    %eax,-0xc(%ebp)
    for (int i = 0; i < argc; i++) {
   12071:	83 45 f0 01          	addl   $0x1,-0x10(%ebp)
   12075:	8b 45 f0             	mov    -0x10(%ebp),%eax
   12078:	3b 45 10             	cmp    0x10(%ebp),%eax
   1207b:	0f 8c 72 ff ff ff    	jl     11ff3 <copy_args+0x70>
    }

    // 可能存在无参的情况，此时不需要写入
    if (argc) {
   12081:	83 7d 10 00          	cmpl   $0x0,0x10(%ebp)
   12085:	74 15                	je     1209c <copy_args+0x119>
        dest_argv_tb[argc] = '\0';
   12087:	8b 45 10             	mov    0x10(%ebp),%eax
   1208a:	8d 14 85 00 00 00 00 	lea    0x0(,%eax,4),%edx
   12091:	8b 45 ec             	mov    -0x14(%ebp),%eax
   12094:	01 d0                	add    %edx,%eax
   12096:	c7 00 00 00 00 00    	movl   $0x0,(%eax)
    }

     // 写入task_args
    return memory_copy_uvm_data((uint32_t)to, page_dir, (uint32_t)&task_args, sizeof(task_args_t));
   1209c:	8d 55 d4             	lea    -0x2c(%ebp),%edx
   1209f:	8b 45 08             	mov    0x8(%ebp),%eax
   120a2:	6a 0c                	push   $0xc
   120a4:	52                   	push   %edx
   120a5:	ff 75 0c             	pushl  0xc(%ebp)
   120a8:	50                   	push   %eax
   120a9:	e8 33 ea ff ff       	call   10ae1 <memory_copy_uvm_data>
   120ae:	83 c4 10             	add    $0x10,%esp
}
   120b1:	c9                   	leave  
   120b2:	c3                   	ret    

000120b3 <sys_execve>:
/**
 * @brief 加载一个进程
 * 这个比较复杂，argv/name/env都是原进程空间中的数据，execve中涉及到页表的切换
 * 在对argv和name进行处理时，会涉及到不同进程空间中数据的传递。
 */
int sys_execve(char *name, char **argv, char **env) {
   120b3:	55                   	push   %ebp
   120b4:	89 e5                	mov    %esp,%ebp
   120b6:	83 ec 28             	sub    $0x28,%esp
    task_t * task = task_current();
   120b9:	e8 4f f6 ff ff       	call   1170d <task_current>
   120be:	89 45 f4             	mov    %eax,-0xc(%ebp)

    // 后面会切换页表，所以先处理需要从进程空间取数据的情况
    kernel_strncpy(task->name, get_file_name(name), TASK_NAME_SIZE);
   120c1:	83 ec 0c             	sub    $0xc,%esp
   120c4:	ff 75 08             	pushl  0x8(%ebp)
   120c7:	e8 b9 61 00 00       	call   18285 <get_file_name>
   120cc:	83 c4 10             	add    $0x10,%esp
   120cf:	89 c2                	mov    %eax,%edx
   120d1:	8b 45 f4             	mov    -0xc(%ebp),%eax
   120d4:	83 c0 04             	add    $0x4,%eax
   120d7:	83 ec 04             	sub    $0x4,%esp
   120da:	6a 20                	push   $0x20
   120dc:	52                   	push   %edx
   120dd:	50                   	push   %eax
   120de:	e8 2f 62 00 00       	call   18312 <kernel_strncpy>
   120e3:	83 c4 10             	add    $0x10,%esp

    // 现在开始加载了，先准备应用页表，由于所有操作均在内核区中进行，所以可以直接先切换到新页表
    uint32_t old_page_dir = task->tss.cr3;
   120e6:	8b 45 f4             	mov    -0xc(%ebp),%eax
   120e9:	8b 80 60 02 00 00    	mov    0x260(%eax),%eax
   120ef:	89 45 f0             	mov    %eax,-0x10(%ebp)
    uint32_t new_page_dir = memory_create_uvm();
   120f2:	e8 bb e6 ff ff       	call   107b2 <memory_create_uvm>
   120f7:	89 45 ec             	mov    %eax,-0x14(%ebp)
    if (!new_page_dir) {
   120fa:	83 7d ec 00          	cmpl   $0x0,-0x14(%ebp)
   120fe:	0f 84 2d 01 00 00    	je     12231 <sys_execve+0x17e>
        goto exec_failed;
    }

    // 加载elf文件到内存中。要放在开启新页表之后，这样才能对相应的内存区域写
    uint32_t entry = load_elf_file(task, name, new_page_dir);    // 暂时置用task->name表示
   12104:	83 ec 04             	sub    $0x4,%esp
   12107:	ff 75 ec             	pushl  -0x14(%ebp)
   1210a:	ff 75 08             	pushl  0x8(%ebp)
   1210d:	ff 75 f4             	pushl  -0xc(%ebp)
   12110:	e8 5b fc ff ff       	call   11d70 <load_elf_file>
   12115:	83 c4 10             	add    $0x10,%esp
   12118:	89 45 e8             	mov    %eax,-0x18(%ebp)
    if (entry == 0) {
   1211b:	83 7d e8 00          	cmpl   $0x0,-0x18(%ebp)
   1211f:	0f 84 0f 01 00 00    	je     12234 <sys_execve+0x181>
        goto exec_failed;
    }

    // 准备用户栈空间，预留环境环境及参数的空间
    uint32_t stack_top = MEM_TASK_STACK_TOP - MEM_TASK_ARG_SIZE;    // 预留一部分参数空间
   12125:	c7 45 e4 00 c0 ff df 	movl   $0xdfffc000,-0x1c(%ebp)
    int err = memory_alloc_for_page_dir(new_page_dir,
   1212c:	6a 07                	push   $0x7
   1212e:	68 00 40 1f 00       	push   $0x1f4000
   12133:	68 00 c0 e0 df       	push   $0xdfe0c000
   12138:	ff 75 ec             	pushl  -0x14(%ebp)
   1213b:	e8 24 ea ff ff       	call   10b64 <memory_alloc_for_page_dir>
   12140:	83 c4 10             	add    $0x10,%esp
   12143:	89 45 e0             	mov    %eax,-0x20(%ebp)
                            MEM_TASK_STACK_TOP - MEM_TASK_STACK_SIZE,
                            MEM_TASK_STACK_SIZE, PTE_P | PTE_U | PTE_W);
    if (err < 0) {
   12146:	83 7d e0 00          	cmpl   $0x0,-0x20(%ebp)
   1214a:	0f 88 e7 00 00 00    	js     12237 <sys_execve+0x184>
        goto exec_failed;
    }

    // 复制参数，写入到栈顶的后边
    int argc = strings_count(argv);
   12150:	83 ec 0c             	sub    $0xc,%esp
   12153:	ff 75 0c             	pushl  0xc(%ebp)
   12156:	e8 fd 60 00 00       	call   18258 <strings_count>
   1215b:	83 c4 10             	add    $0x10,%esp
   1215e:	89 45 dc             	mov    %eax,-0x24(%ebp)
    err = copy_args((char *)stack_top, new_page_dir, argc, argv);
   12161:	8b 45 e4             	mov    -0x1c(%ebp),%eax
   12164:	ff 75 0c             	pushl  0xc(%ebp)
   12167:	ff 75 dc             	pushl  -0x24(%ebp)
   1216a:	ff 75 ec             	pushl  -0x14(%ebp)
   1216d:	50                   	push   %eax
   1216e:	e8 10 fe ff ff       	call   11f83 <copy_args>
   12173:	83 c4 10             	add    $0x10,%esp
   12176:	89 45 e0             	mov    %eax,-0x20(%ebp)
    if (err < 0) {
   12179:	83 7d e0 00          	cmpl   $0x0,-0x20(%ebp)
   1217d:	0f 88 b7 00 00 00    	js     1223a <sys_execve+0x187>

    // 加载完毕，为程序的执行做必要准备
    // 注意，exec的作用是替换掉当前进程，所以只要改变当前进程的执行流即可
    // 当该进程恢复运行时，像完全重新运行一样，所以用户栈要设置成初始模式
    // 运行地址要设备成整个程序的入口地址
    syscall_frame_t * frame = (syscall_frame_t *)(task->tss.esp0 - sizeof(syscall_frame_t));
   12183:	8b 45 f4             	mov    -0xc(%ebp),%eax
   12186:	8b 80 48 02 00 00    	mov    0x248(%eax),%eax
   1218c:	83 e8 58             	sub    $0x58,%eax
   1218f:	89 45 d8             	mov    %eax,-0x28(%ebp)
    frame->eip = entry;
   12192:	8b 55 e8             	mov    -0x18(%ebp),%edx
   12195:	8b 45 d8             	mov    -0x28(%ebp),%eax
   12198:	89 50 34             	mov    %edx,0x34(%eax)
    frame->eax = frame->ebx = frame->ecx = frame->edx = 0;
   1219b:	8b 45 d8             	mov    -0x28(%ebp),%eax
   1219e:	c7 40 28 00 00 00 00 	movl   $0x0,0x28(%eax)
   121a5:	8b 45 d8             	mov    -0x28(%ebp),%eax
   121a8:	8b 50 28             	mov    0x28(%eax),%edx
   121ab:	8b 45 d8             	mov    -0x28(%ebp),%eax
   121ae:	89 50 2c             	mov    %edx,0x2c(%eax)
   121b1:	8b 45 d8             	mov    -0x28(%ebp),%eax
   121b4:	8b 50 2c             	mov    0x2c(%eax),%edx
   121b7:	8b 45 d8             	mov    -0x28(%ebp),%eax
   121ba:	89 50 24             	mov    %edx,0x24(%eax)
   121bd:	8b 45 d8             	mov    -0x28(%ebp),%eax
   121c0:	8b 50 24             	mov    0x24(%eax),%edx
   121c3:	8b 45 d8             	mov    -0x28(%ebp),%eax
   121c6:	89 50 30             	mov    %edx,0x30(%eax)
    frame->esi = frame->edi = frame->ebp = 0;
   121c9:	8b 45 d8             	mov    -0x28(%ebp),%eax
   121cc:	c7 40 1c 00 00 00 00 	movl   $0x0,0x1c(%eax)
   121d3:	8b 45 d8             	mov    -0x28(%ebp),%eax
   121d6:	8b 50 1c             	mov    0x1c(%eax),%edx
   121d9:	8b 45 d8             	mov    -0x28(%ebp),%eax
   121dc:	89 50 14             	mov    %edx,0x14(%eax)
   121df:	8b 45 d8             	mov    -0x28(%ebp),%eax
   121e2:	8b 50 14             	mov    0x14(%eax),%edx
   121e5:	8b 45 d8             	mov    -0x28(%ebp),%eax
   121e8:	89 50 18             	mov    %edx,0x18(%eax)
    frame->eflags = EFLAGS_DEFAULT| EFLAGS_IF;  // 段寄存器无需修改
   121eb:	8b 45 d8             	mov    -0x28(%ebp),%eax
   121ee:	c7 00 02 02 00 00    	movl   $0x202,(%eax)

    // 内核栈不用设置，保持不变，后面调用memory_destroy_uvm并不会销毁内核栈的映射。
    // 但用户栈需要更改, 同样要加上调用门的参数压栈空间
    frame->esp = stack_top - sizeof(uint32_t)*SYSCALL_PARAM_COUNT;
   121f4:	8b 45 e4             	mov    -0x1c(%ebp),%eax
   121f7:	83 e8 14             	sub    $0x14,%eax
   121fa:	89 c2                	mov    %eax,%edx
   121fc:	8b 45 d8             	mov    -0x28(%ebp),%eax
   121ff:	89 50 50             	mov    %edx,0x50(%eax)

    // 切换到新的页表
    task->tss.cr3 = new_page_dir;
   12202:	8b 45 f4             	mov    -0xc(%ebp),%eax
   12205:	8b 55 ec             	mov    -0x14(%ebp),%edx
   12208:	89 90 60 02 00 00    	mov    %edx,0x260(%eax)
    mmu_set_page_dir(new_page_dir);   // 切换至新的页表。由于不用访问原栈及数据，所以并无问题
   1220e:	83 ec 0c             	sub    $0xc,%esp
   12211:	ff 75 ec             	pushl  -0x14(%ebp)
   12214:	e8 06 ee ff ff       	call   1101f <mmu_set_page_dir>
   12219:	83 c4 10             	add    $0x10,%esp

    // 调整页表，切换成新的，同时释放掉之前的
    // 当前使用的是内核栈，而内核栈并未映射到进程地址空间中，所以下面的释放没有问题
    memory_destroy_uvm(old_page_dir);            // 再释放掉了原进程的内容空间
   1221c:	83 ec 0c             	sub    $0xc,%esp
   1221f:	ff 75 f0             	pushl  -0x10(%ebp)
   12222:	e8 10 e6 ff ff       	call   10837 <memory_destroy_uvm>
   12227:	83 c4 10             	add    $0x10,%esp

    // 当从系统调用中返回时，将切换至新进程的入口地址运行，并且进程能够获取参数
    // 注意，如果用户栈设置不当，可能导致返回后运行出现异常。可在gdb中使用nexti单步观察运行流程
    return  0;
   1222a:	b8 00 00 00 00       	mov    $0x0,%eax
   1222f:	eb 3d                	jmp    1226e <sys_execve+0x1bb>
        goto exec_failed;
   12231:	90                   	nop
   12232:	eb 07                	jmp    1223b <sys_execve+0x188>
        goto exec_failed;
   12234:	90                   	nop
   12235:	eb 04                	jmp    1223b <sys_execve+0x188>
        goto exec_failed;
   12237:	90                   	nop
   12238:	eb 01                	jmp    1223b <sys_execve+0x188>
        goto exec_failed;
   1223a:	90                   	nop

exec_failed:    // 必要的资源释放
    if (new_page_dir) {
   1223b:	83 7d ec 00          	cmpl   $0x0,-0x14(%ebp)
   1223f:	74 28                	je     12269 <sys_execve+0x1b6>
        // 有页表空间切换，切换至旧页表，销毁新页表
        task->tss.cr3 = old_page_dir;
   12241:	8b 45 f4             	mov    -0xc(%ebp),%eax
   12244:	8b 55 f0             	mov    -0x10(%ebp),%edx
   12247:	89 90 60 02 00 00    	mov    %edx,0x260(%eax)
        mmu_set_page_dir(old_page_dir);
   1224d:	83 ec 0c             	sub    $0xc,%esp
   12250:	ff 75 f0             	pushl  -0x10(%ebp)
   12253:	e8 c7 ed ff ff       	call   1101f <mmu_set_page_dir>
   12258:	83 c4 10             	add    $0x10,%esp
        memory_destroy_uvm(new_page_dir);
   1225b:	83 ec 0c             	sub    $0xc,%esp
   1225e:	ff 75 ec             	pushl  -0x14(%ebp)
   12261:	e8 d1 e5 ff ff       	call   10837 <memory_destroy_uvm>
   12266:	83 c4 10             	add    $0x10,%esp
    }

    return -1;
   12269:	b8 ff ff ff ff       	mov    $0xffffffff,%eax
}
   1226e:	c9                   	leave  
   1226f:	c3                   	ret    

00012270 <sys_getpid>:

/**
 * 返回任务的pid
 */
int sys_getpid (void) {
   12270:	55                   	push   %ebp
   12271:	89 e5                	mov    %esp,%ebp
   12273:	83 ec 10             	sub    $0x10,%esp
    task_t * curr_task = task_current();
   12276:	e8 92 f4 ff ff       	call   1170d <task_current>
   1227b:	89 45 fc             	mov    %eax,-0x4(%ebp)
    return curr_task->pid;
   1227e:	8b 45 fc             	mov    -0x4(%ebp),%eax
   12281:	8b 40 24             	mov    0x24(%eax),%eax
}
   12284:	c9                   	leave  
   12285:	c3                   	ret    

00012286 <sys_wait>:


/**
 * @brief 等待子进程退出
 */
int sys_wait(int* status) {
   12286:	55                   	push   %ebp
   12287:	89 e5                	mov    %esp,%ebp
   12289:	83 ec 28             	sub    $0x28,%esp
    task_t * curr_task = task_current();
   1228c:	e8 7c f4 ff ff       	call   1170d <task_current>
   12291:	89 45 f0             	mov    %eax,-0x10(%ebp)

    for (;;) {
        // 遍历，找僵尸状态的进程，然后回收。如果收不到，则进入睡眠态
        mutex_lock(&task_table_mutex);
   12294:	83 ec 0c             	sub    $0xc,%esp
   12297:	68 c0 49 03 00       	push   $0x349c0
   1229c:	e8 c8 5a 00 00       	call   17d69 <mutex_lock>
   122a1:	83 c4 10             	add    $0x10,%esp
        for (int i = 0; i < TASK_NR; i++) {
   122a4:	c7 45 f4 00 00 00 00 	movl   $0x0,-0xc(%ebp)
   122ab:	e9 98 00 00 00       	jmp    12348 <sys_wait+0xc2>
            task_t * task = task_table + i;
   122b0:	8b 45 f4             	mov    -0xc(%ebp),%eax
   122b3:	69 c0 c8 02 00 00    	imul   $0x2c8,%eax,%eax
   122b9:	05 c0 e5 01 00       	add    $0x1e5c0,%eax
   122be:	89 45 e8             	mov    %eax,-0x18(%ebp)
            if (task->parent != curr_task) {
   122c1:	8b 45 e8             	mov    -0x18(%ebp),%eax
   122c4:	8b 40 28             	mov    0x28(%eax),%eax
   122c7:	39 45 f0             	cmp    %eax,-0x10(%ebp)
   122ca:	75 77                	jne    12343 <sys_wait+0xbd>
                continue;
            }

            if (task->state == TASK_ZOMBIE) {
   122cc:	8b 45 e8             	mov    -0x18(%ebp),%eax
   122cf:	8b 00                	mov    (%eax),%eax
   122d1:	83 f8 05             	cmp    $0x5,%eax
   122d4:	75 6e                	jne    12344 <sys_wait+0xbe>
                int pid = task->pid;
   122d6:	8b 45 e8             	mov    -0x18(%ebp),%eax
   122d9:	8b 40 24             	mov    0x24(%eax),%eax
   122dc:	89 45 e4             	mov    %eax,-0x1c(%ebp)

                *status = task->status;
   122df:	8b 45 e8             	mov    -0x18(%ebp),%eax
   122e2:	8b 50 34             	mov    0x34(%eax),%edx
   122e5:	8b 45 08             	mov    0x8(%ebp),%eax
   122e8:	89 10                	mov    %edx,(%eax)

                memory_destroy_uvm(task->tss.cr3);
   122ea:	8b 45 e8             	mov    -0x18(%ebp),%eax
   122ed:	8b 80 60 02 00 00    	mov    0x260(%eax),%eax
   122f3:	83 ec 0c             	sub    $0xc,%esp
   122f6:	50                   	push   %eax
   122f7:	e8 3b e5 ff ff       	call   10837 <memory_destroy_uvm>
   122fc:	83 c4 10             	add    $0x10,%esp
                memory_free_page(task->tss.esp0 - MEM_PAGE_SIZE);
   122ff:	8b 45 e8             	mov    -0x18(%ebp),%eax
   12302:	8b 80 48 02 00 00    	mov    0x248(%eax),%eax
   12308:	2d 00 10 00 00       	sub    $0x1000,%eax
   1230d:	83 ec 0c             	sub    $0xc,%esp
   12310:	50                   	push   %eax
   12311:	e8 76 e9 ff ff       	call   10c8c <memory_free_page>
   12316:	83 c4 10             	add    $0x10,%esp
                kernel_memset(task, 0, sizeof(task_t));
   12319:	83 ec 04             	sub    $0x4,%esp
   1231c:	68 c8 02 00 00       	push   $0x2c8
   12321:	6a 00                	push   $0x0
   12323:	ff 75 e8             	pushl  -0x18(%ebp)
   12326:	e8 5b 61 00 00       	call   18486 <kernel_memset>
   1232b:	83 c4 10             	add    $0x10,%esp

                mutex_unlock(&task_table_mutex);
   1232e:	83 ec 0c             	sub    $0xc,%esp
   12331:	68 c0 49 03 00       	push   $0x349c0
   12336:	e8 c5 5a 00 00       	call   17e00 <mutex_unlock>
   1233b:	83 c4 10             	add    $0x10,%esp
                return pid;
   1233e:	8b 45 e4             	mov    -0x1c(%ebp),%eax
   12341:	eb 56                	jmp    12399 <sys_wait+0x113>
                continue;
   12343:	90                   	nop
        for (int i = 0; i < TASK_NR; i++) {
   12344:	83 45 f4 01          	addl   $0x1,-0xc(%ebp)
   12348:	83 7d f4 7f          	cmpl   $0x7f,-0xc(%ebp)
   1234c:	0f 8e 5e ff ff ff    	jle    122b0 <sys_wait+0x2a>
            }
        }
        mutex_unlock(&task_table_mutex);
   12352:	83 ec 0c             	sub    $0xc,%esp
   12355:	68 c0 49 03 00       	push   $0x349c0
   1235a:	e8 a1 5a 00 00       	call   17e00 <mutex_unlock>
   1235f:	83 c4 10             	add    $0x10,%esp

        // 找不到，则等待
        irq_state_t state = irq_enter_protection();
   12362:	e8 ab 0d 00 00       	call   13112 <irq_enter_protection>
   12367:	89 45 ec             	mov    %eax,-0x14(%ebp)
        task_set_block(curr_task);
   1236a:	83 ec 0c             	sub    $0xc,%esp
   1236d:	ff 75 f0             	pushl  -0x10(%ebp)
   12370:	e8 ca f2 ff ff       	call   1163f <task_set_block>
   12375:	83 c4 10             	add    $0x10,%esp
        curr_task->state = TASK_WAITING;
   12378:	8b 45 f0             	mov    -0x10(%ebp),%eax
   1237b:	c7 00 04 00 00 00    	movl   $0x4,(%eax)
        task_dispatch();
   12381:	e8 9e f4 ff ff       	call   11824 <task_dispatch>
        irq_leave_protection(state);
   12386:	83 ec 0c             	sub    $0xc,%esp
   12389:	ff 75 ec             	pushl  -0x14(%ebp)
   1238c:	e8 99 0d 00 00       	call   1312a <irq_leave_protection>
   12391:	83 c4 10             	add    $0x10,%esp
    for (;;) {
   12394:	e9 fb fe ff ff       	jmp    12294 <sys_wait+0xe>
    }
}
   12399:	c9                   	leave  
   1239a:	c3                   	ret    

0001239b <sys_exit>:

/**
 * @brief 退出进程
 */
void sys_exit(int status) {
   1239b:	55                   	push   %ebp
   1239c:	89 e5                	mov    %esp,%ebp
   1239e:	83 ec 28             	sub    $0x28,%esp
    task_t * curr_task = task_current();
   123a1:	e8 67 f3 ff ff       	call   1170d <task_current>
   123a6:	89 45 e8             	mov    %eax,-0x18(%ebp)

    // 关闭所有已经打开的文件, 标准输入输出库会由newlib自行关闭，但这里仍然再处理下
    for (int fd = 0; fd < TASK_OFILE_NR; fd++) {
   123a9:	c7 45 f4 00 00 00 00 	movl   $0x0,-0xc(%ebp)
   123b0:	eb 39                	jmp    123eb <sys_exit+0x50>
        file_t * file = curr_task->file_table[fd];
   123b2:	8b 45 e8             	mov    -0x18(%ebp),%eax
   123b5:	8b 55 f4             	mov    -0xc(%ebp),%edx
   123b8:	83 c2 10             	add    $0x10,%edx
   123bb:	8b 44 90 04          	mov    0x4(%eax,%edx,4),%eax
   123bf:	89 45 d8             	mov    %eax,-0x28(%ebp)
        if (file) {
   123c2:	83 7d d8 00          	cmpl   $0x0,-0x28(%ebp)
   123c6:	74 1f                	je     123e7 <sys_exit+0x4c>
            sys_close(fd);
   123c8:	83 ec 0c             	sub    $0xc,%esp
   123cb:	ff 75 f4             	pushl  -0xc(%ebp)
   123ce:	e8 3d 55 00 00       	call   17910 <sys_close>
   123d3:	83 c4 10             	add    $0x10,%esp
            curr_task->file_table[fd] = (file_t *)0;
   123d6:	8b 45 e8             	mov    -0x18(%ebp),%eax
   123d9:	8b 55 f4             	mov    -0xc(%ebp),%edx
   123dc:	83 c2 10             	add    $0x10,%edx
   123df:	c7 44 90 04 00 00 00 	movl   $0x0,0x4(%eax,%edx,4)
   123e6:	00 
    for (int fd = 0; fd < TASK_OFILE_NR; fd++) {
   123e7:	83 45 f4 01          	addl   $0x1,-0xc(%ebp)
   123eb:	83 7d f4 7f          	cmpl   $0x7f,-0xc(%ebp)
   123ef:	7e c1                	jle    123b2 <sys_exit+0x17>
        }
    }

    int move_child = 0;
   123f1:	c7 45 f0 00 00 00 00 	movl   $0x0,-0x10(%ebp)

    // 找所有的子进程，将其转交给init进程
    mutex_lock(&task_table_mutex);
   123f8:	83 ec 0c             	sub    $0xc,%esp
   123fb:	68 c0 49 03 00       	push   $0x349c0
   12400:	e8 64 59 00 00       	call   17d69 <mutex_lock>
   12405:	83 c4 10             	add    $0x10,%esp
    for (int i = 0; i < TASK_OFILE_NR; i++) {
   12408:	c7 45 ec 00 00 00 00 	movl   $0x0,-0x14(%ebp)
   1240f:	eb 3b                	jmp    1244c <sys_exit+0xb1>
        task_t * task = task_table + i;
   12411:	8b 45 ec             	mov    -0x14(%ebp),%eax
   12414:	69 c0 c8 02 00 00    	imul   $0x2c8,%eax,%eax
   1241a:	05 c0 e5 01 00       	add    $0x1e5c0,%eax
   1241f:	89 45 dc             	mov    %eax,-0x24(%ebp)
        if (task->parent == curr_task) {
   12422:	8b 45 dc             	mov    -0x24(%ebp),%eax
   12425:	8b 40 28             	mov    0x28(%eax),%eax
   12428:	39 45 e8             	cmp    %eax,-0x18(%ebp)
   1242b:	75 1b                	jne    12448 <sys_exit+0xad>
            // 有子进程，则转给init_task
            task->parent = &task_manager.first_task;
   1242d:	8b 45 dc             	mov    -0x24(%ebp),%eax
   12430:	c7 40 28 28 d0 01 00 	movl   $0x1d028,0x28(%eax)

            // 如果子进程中有僵尸进程，唤醒回收资源
            // 并不由自己回收，因为自己将要退出
            if (task->state == TASK_ZOMBIE) {
   12437:	8b 45 dc             	mov    -0x24(%ebp),%eax
   1243a:	8b 00                	mov    (%eax),%eax
   1243c:	83 f8 05             	cmp    $0x5,%eax
   1243f:	75 07                	jne    12448 <sys_exit+0xad>
                move_child = 1;
   12441:	c7 45 f0 01 00 00 00 	movl   $0x1,-0x10(%ebp)
    for (int i = 0; i < TASK_OFILE_NR; i++) {
   12448:	83 45 ec 01          	addl   $0x1,-0x14(%ebp)
   1244c:	83 7d ec 7f          	cmpl   $0x7f,-0x14(%ebp)
   12450:	7e bf                	jle    12411 <sys_exit+0x76>
            }
        }
    }
    mutex_unlock(&task_table_mutex);
   12452:	83 ec 0c             	sub    $0xc,%esp
   12455:	68 c0 49 03 00       	push   $0x349c0
   1245a:	e8 a1 59 00 00       	call   17e00 <mutex_unlock>
   1245f:	83 c4 10             	add    $0x10,%esp

    irq_state_t state = irq_enter_protection();
   12462:	e8 ab 0c 00 00       	call   13112 <irq_enter_protection>
   12467:	89 45 e4             	mov    %eax,-0x1c(%ebp)

    // 如果有移动子进程，则唤醒init进程
    task_t * parent = curr_task->parent;
   1246a:	8b 45 e8             	mov    -0x18(%ebp),%eax
   1246d:	8b 40 28             	mov    0x28(%eax),%eax
   12470:	89 45 e0             	mov    %eax,-0x20(%ebp)
    if (move_child && (parent != &task_manager.first_task)) {  // 如果父进程为init进程，在下方唤醒
   12473:	83 7d f0 00          	cmpl   $0x0,-0x10(%ebp)
   12477:	74 23                	je     1249c <sys_exit+0x101>
   12479:	81 7d e0 28 d0 01 00 	cmpl   $0x1d028,-0x20(%ebp)
   12480:	74 1a                	je     1249c <sys_exit+0x101>
        if (task_manager.first_task.state == TASK_WAITING) {
   12482:	a1 28 d0 01 00       	mov    0x1d028,%eax
   12487:	83 f8 04             	cmp    $0x4,%eax
   1248a:	75 10                	jne    1249c <sys_exit+0x101>
            task_set_ready(&task_manager.first_task);
   1248c:	83 ec 0c             	sub    $0xc,%esp
   1248f:	68 28 d0 01 00       	push   $0x1d028
   12494:	e8 72 f1 ff ff       	call   1160b <task_set_ready>
   12499:	83 c4 10             	add    $0x10,%esp
        }
    }

    // 如果有父任务在wait，则唤醒父任务进行回收
    // 如果父进程没有等待，则一直处理僵死状态？
    if (parent->state == TASK_WAITING) {
   1249c:	8b 45 e0             	mov    -0x20(%ebp),%eax
   1249f:	8b 00                	mov    (%eax),%eax
   124a1:	83 f8 04             	cmp    $0x4,%eax
   124a4:	75 12                	jne    124b8 <sys_exit+0x11d>
        task_set_ready(curr_task->parent);
   124a6:	8b 45 e8             	mov    -0x18(%ebp),%eax
   124a9:	8b 40 28             	mov    0x28(%eax),%eax
   124ac:	83 ec 0c             	sub    $0xc,%esp
   124af:	50                   	push   %eax
   124b0:	e8 56 f1 ff ff       	call   1160b <task_set_ready>
   124b5:	83 c4 10             	add    $0x10,%esp
    }

    // 保存返回值，进入僵尸状态
    curr_task->status = status;
   124b8:	8b 45 e8             	mov    -0x18(%ebp),%eax
   124bb:	8b 55 08             	mov    0x8(%ebp),%edx
   124be:	89 50 34             	mov    %edx,0x34(%eax)
    curr_task->state = TASK_ZOMBIE;
   124c1:	8b 45 e8             	mov    -0x18(%ebp),%eax
   124c4:	c7 00 05 00 00 00    	movl   $0x5,(%eax)
    task_set_block(curr_task);
   124ca:	83 ec 0c             	sub    $0xc,%esp
   124cd:	ff 75 e8             	pushl  -0x18(%ebp)
   124d0:	e8 6a f1 ff ff       	call   1163f <task_set_block>
   124d5:	83 c4 10             	add    $0x10,%esp
    task_dispatch();
   124d8:	e8 47 f3 ff ff       	call   11824 <task_dispatch>

    irq_leave_protection(state);
   124dd:	83 ec 0c             	sub    $0xc,%esp
   124e0:	ff 75 e4             	pushl  -0x1c(%ebp)
   124e3:	e8 42 0c 00 00       	call   1312a <irq_leave_protection>
   124e8:	83 c4 10             	add    $0x10,%esp
}
   124eb:	90                   	nop
   124ec:	c9                   	leave  
   124ed:	c3                   	ret    

000124ee <lgdt>:
static inline void lgdt(uint32_t start, uint32_t size) {
   124ee:	55                   	push   %ebp
   124ef:	89 e5                	mov    %esp,%ebp
   124f1:	83 ec 10             	sub    $0x10,%esp
	gdt.start31_16 = start >> 16;
   124f4:	8b 45 08             	mov    0x8(%ebp),%eax
   124f7:	c1 e8 10             	shr    $0x10,%eax
   124fa:	66 89 45 fe          	mov    %ax,-0x2(%ebp)
	gdt.start15_0 = start & 0xFFFF;
   124fe:	8b 45 08             	mov    0x8(%ebp),%eax
   12501:	66 89 45 fc          	mov    %ax,-0x4(%ebp)
	gdt.limit = size - 1;
   12505:	8b 45 0c             	mov    0xc(%ebp),%eax
   12508:	83 e8 01             	sub    $0x1,%eax
   1250b:	66 89 45 fa          	mov    %ax,-0x6(%ebp)
	__asm__ __volatile__("lgdt %[g]"::[g]"m"(gdt));
   1250f:	0f 01 55 fa          	lgdtl  -0x6(%ebp)
}
   12513:	90                   	nop
   12514:	c9                   	leave  
   12515:	c3                   	ret    

00012516 <far_jump>:
static inline void far_jump(uint32_t selector, uint32_t offset) {
   12516:	55                   	push   %ebp
   12517:	89 e5                	mov    %esp,%ebp
   12519:	83 ec 10             	sub    $0x10,%esp
	uint32_t addr[] = {offset, selector };
   1251c:	8b 45 0c             	mov    0xc(%ebp),%eax
   1251f:	89 45 f8             	mov    %eax,-0x8(%ebp)
   12522:	8b 45 08             	mov    0x8(%ebp),%eax
   12525:	89 45 fc             	mov    %eax,-0x4(%ebp)
	__asm__ __volatile__("ljmpl *(%[a])"::[a]"r"(addr));
   12528:	8d 45 f8             	lea    -0x8(%ebp),%eax
   1252b:	ff 28                	ljmp   *(%eax)
}
   1252d:	90                   	nop
   1252e:	c9                   	leave  
   1252f:	c3                   	ret    

00012530 <segment_desc_set>:
static mutex_t mutex;

/**
 * 设置段描述符
 */
void segment_desc_set(int selector, uint32_t base, uint32_t limit, uint16_t attr) {
   12530:	55                   	push   %ebp
   12531:	89 e5                	mov    %esp,%ebp
   12533:	83 ec 14             	sub    $0x14,%esp
   12536:	8b 45 14             	mov    0x14(%ebp),%eax
   12539:	66 89 45 ec          	mov    %ax,-0x14(%ebp)
    segment_desc_t * desc = gdt_table + (selector >> 3);
   1253d:	8b 45 08             	mov    0x8(%ebp),%eax
   12540:	c1 f8 03             	sar    $0x3,%eax
   12543:	c1 e0 03             	shl    $0x3,%eax
   12546:	05 e0 49 03 00       	add    $0x349e0,%eax
   1254b:	89 45 fc             	mov    %eax,-0x4(%ebp)

	// 如果界限比较长，将长度单位换成4KB
	if (limit > 0xfffff) {
   1254e:	81 7d 10 ff ff 0f 00 	cmpl   $0xfffff,0x10(%ebp)
   12555:	76 0f                	jbe    12566 <segment_desc_set+0x36>
		attr |= 0x8000;
   12557:	66 81 4d ec 00 80    	orw    $0x8000,-0x14(%ebp)
		limit /= 0x1000;
   1255d:	8b 45 10             	mov    0x10(%ebp),%eax
   12560:	c1 e8 0c             	shr    $0xc,%eax
   12563:	89 45 10             	mov    %eax,0x10(%ebp)
	}
	desc->limit15_0 = limit & 0xffff;
   12566:	8b 45 10             	mov    0x10(%ebp),%eax
   12569:	89 c2                	mov    %eax,%edx
   1256b:	8b 45 fc             	mov    -0x4(%ebp),%eax
   1256e:	66 89 10             	mov    %dx,(%eax)
	desc->base15_0 = base & 0xffff;
   12571:	8b 45 0c             	mov    0xc(%ebp),%eax
   12574:	89 c2                	mov    %eax,%edx
   12576:	8b 45 fc             	mov    -0x4(%ebp),%eax
   12579:	66 89 50 02          	mov    %dx,0x2(%eax)
	desc->base23_16 = (base >> 16) & 0xff;
   1257d:	8b 45 0c             	mov    0xc(%ebp),%eax
   12580:	c1 e8 10             	shr    $0x10,%eax
   12583:	89 c2                	mov    %eax,%edx
   12585:	8b 45 fc             	mov    -0x4(%ebp),%eax
   12588:	88 50 04             	mov    %dl,0x4(%eax)
	desc->attr = attr | (((limit >> 16) & 0xf) << 8);
   1258b:	8b 45 10             	mov    0x10(%ebp),%eax
   1258e:	c1 e8 10             	shr    $0x10,%eax
   12591:	c1 e0 08             	shl    $0x8,%eax
   12594:	66 25 00 0f          	and    $0xf00,%ax
   12598:	66 0b 45 ec          	or     -0x14(%ebp),%ax
   1259c:	89 c2                	mov    %eax,%edx
   1259e:	8b 45 fc             	mov    -0x4(%ebp),%eax
   125a1:	66 89 50 05          	mov    %dx,0x5(%eax)
	desc->base31_24 = (base >> 24) & 0xff;
   125a5:	8b 45 0c             	mov    0xc(%ebp),%eax
   125a8:	c1 e8 18             	shr    $0x18,%eax
   125ab:	89 c2                	mov    %eax,%edx
   125ad:	8b 45 fc             	mov    -0x4(%ebp),%eax
   125b0:	88 50 07             	mov    %dl,0x7(%eax)
}
   125b3:	90                   	nop
   125b4:	c9                   	leave  
   125b5:	c3                   	ret    

000125b6 <gate_desc_set>:

/**
 * 设置门描述符
 */
void gate_desc_set(gate_desc_t * desc, uint16_t selector, uint32_t offset, uint16_t attr) {
   125b6:	55                   	push   %ebp
   125b7:	89 e5                	mov    %esp,%ebp
   125b9:	83 ec 08             	sub    $0x8,%esp
   125bc:	8b 55 0c             	mov    0xc(%ebp),%edx
   125bf:	8b 45 14             	mov    0x14(%ebp),%eax
   125c2:	66 89 55 fc          	mov    %dx,-0x4(%ebp)
   125c6:	66 89 45 f8          	mov    %ax,-0x8(%ebp)
	desc->offset15_0 = offset & 0xffff;
   125ca:	8b 45 10             	mov    0x10(%ebp),%eax
   125cd:	89 c2                	mov    %eax,%edx
   125cf:	8b 45 08             	mov    0x8(%ebp),%eax
   125d2:	66 89 10             	mov    %dx,(%eax)
	desc->selector = selector;
   125d5:	8b 45 08             	mov    0x8(%ebp),%eax
   125d8:	0f b7 55 fc          	movzwl -0x4(%ebp),%edx
   125dc:	66 89 50 02          	mov    %dx,0x2(%eax)
	desc->attr = attr;
   125e0:	8b 45 08             	mov    0x8(%ebp),%eax
   125e3:	0f b7 55 f8          	movzwl -0x8(%ebp),%edx
   125e7:	66 89 50 04          	mov    %dx,0x4(%eax)
	desc->offset31_16 = (offset >> 16) & 0xffff;
   125eb:	8b 45 10             	mov    0x10(%ebp),%eax
   125ee:	c1 e8 10             	shr    $0x10,%eax
   125f1:	89 c2                	mov    %eax,%edx
   125f3:	8b 45 08             	mov    0x8(%ebp),%eax
   125f6:	66 89 50 06          	mov    %dx,0x6(%eax)
}
   125fa:	90                   	nop
   125fb:	c9                   	leave  
   125fc:	c3                   	ret    

000125fd <gdt_free_sel>:

void gdt_free_sel (int sel) {
   125fd:	55                   	push   %ebp
   125fe:	89 e5                	mov    %esp,%ebp
   12600:	83 ec 08             	sub    $0x8,%esp
    mutex_lock(&mutex);
   12603:	83 ec 0c             	sub    $0xc,%esp
   12606:	68 e0 51 03 00       	push   $0x351e0
   1260b:	e8 59 57 00 00       	call   17d69 <mutex_lock>
   12610:	83 c4 10             	add    $0x10,%esp
    gdt_table[sel / sizeof(segment_desc_t)].attr = 0;
   12613:	8b 45 08             	mov    0x8(%ebp),%eax
   12616:	c1 e8 03             	shr    $0x3,%eax
   12619:	66 c7 04 c5 e5 49 03 	movw   $0x0,0x349e5(,%eax,8)
   12620:	00 00 00 
    mutex_unlock(&mutex);
   12623:	83 ec 0c             	sub    $0xc,%esp
   12626:	68 e0 51 03 00       	push   $0x351e0
   1262b:	e8 d0 57 00 00       	call   17e00 <mutex_unlock>
   12630:	83 c4 10             	add    $0x10,%esp
}
   12633:	90                   	nop
   12634:	c9                   	leave  
   12635:	c3                   	ret    

00012636 <gdt_alloc_desc>:

/**
 * 分配一个GDT推荐表符
 */
int gdt_alloc_desc (void) {
   12636:	55                   	push   %ebp
   12637:	89 e5                	mov    %esp,%ebp
   12639:	83 ec 18             	sub    $0x18,%esp
    int i;

    // 跳过第0项
    mutex_lock(&mutex);
   1263c:	83 ec 0c             	sub    $0xc,%esp
   1263f:	68 e0 51 03 00       	push   $0x351e0
   12644:	e8 20 57 00 00       	call   17d69 <mutex_lock>
   12649:	83 c4 10             	add    $0x10,%esp
    for (i = 1; i < GDT_TABLE_SIZE; i++) {
   1264c:	c7 45 f4 01 00 00 00 	movl   $0x1,-0xc(%ebp)
   12653:	eb 29                	jmp    1267e <gdt_alloc_desc+0x48>
        segment_desc_t * desc = gdt_table + i;
   12655:	8b 45 f4             	mov    -0xc(%ebp),%eax
   12658:	c1 e0 03             	shl    $0x3,%eax
   1265b:	05 e0 49 03 00       	add    $0x349e0,%eax
   12660:	89 45 f0             	mov    %eax,-0x10(%ebp)
        if (desc->attr == 0) {
   12663:	8b 45 f0             	mov    -0x10(%ebp),%eax
   12666:	0f b7 40 05          	movzwl 0x5(%eax),%eax
   1266a:	66 85 c0             	test   %ax,%ax
   1266d:	75 0b                	jne    1267a <gdt_alloc_desc+0x44>
            desc->attr = SEG_P_PRESENT;     // 标记为占用状态
   1266f:	8b 45 f0             	mov    -0x10(%ebp),%eax
   12672:	66 c7 40 05 80 00    	movw   $0x80,0x5(%eax)
            break;
   12678:	eb 0d                	jmp    12687 <gdt_alloc_desc+0x51>
    for (i = 1; i < GDT_TABLE_SIZE; i++) {
   1267a:	83 45 f4 01          	addl   $0x1,-0xc(%ebp)
   1267e:	81 7d f4 ff 00 00 00 	cmpl   $0xff,-0xc(%ebp)
   12685:	7e ce                	jle    12655 <gdt_alloc_desc+0x1f>
        }
    }
    mutex_unlock(&mutex);
   12687:	83 ec 0c             	sub    $0xc,%esp
   1268a:	68 e0 51 03 00       	push   $0x351e0
   1268f:	e8 6c 57 00 00       	call   17e00 <mutex_unlock>
   12694:	83 c4 10             	add    $0x10,%esp

    return i >= GDT_TABLE_SIZE ? -1 : i * sizeof(segment_desc_t);;
   12697:	81 7d f4 ff 00 00 00 	cmpl   $0xff,-0xc(%ebp)
   1269e:	7f 08                	jg     126a8 <gdt_alloc_desc+0x72>
   126a0:	8b 45 f4             	mov    -0xc(%ebp),%eax
   126a3:	c1 e0 03             	shl    $0x3,%eax
   126a6:	eb 05                	jmp    126ad <gdt_alloc_desc+0x77>
   126a8:	b8 ff ff ff ff       	mov    $0xffffffff,%eax
}
   126ad:	c9                   	leave  
   126ae:	c3                   	ret    

000126af <init_gdt>:

/**
 * 初始化GDT
 */
void init_gdt(void) {
   126af:	55                   	push   %ebp
   126b0:	89 e5                	mov    %esp,%ebp
   126b2:	83 ec 10             	sub    $0x10,%esp
	// 全部清空
    for (int i = 0; i < GDT_TABLE_SIZE; i++) {
   126b5:	c7 45 fc 00 00 00 00 	movl   $0x0,-0x4(%ebp)
   126bc:	eb 19                	jmp    126d7 <init_gdt+0x28>
        segment_desc_set(i << 3, 0, 0, 0);
   126be:	8b 45 fc             	mov    -0x4(%ebp),%eax
   126c1:	c1 e0 03             	shl    $0x3,%eax
   126c4:	6a 00                	push   $0x0
   126c6:	6a 00                	push   $0x0
   126c8:	6a 00                	push   $0x0
   126ca:	50                   	push   %eax
   126cb:	e8 60 fe ff ff       	call   12530 <segment_desc_set>
   126d0:	83 c4 10             	add    $0x10,%esp
    for (int i = 0; i < GDT_TABLE_SIZE; i++) {
   126d3:	83 45 fc 01          	addl   $0x1,-0x4(%ebp)
   126d7:	81 7d fc ff 00 00 00 	cmpl   $0xff,-0x4(%ebp)
   126de:	7e de                	jle    126be <init_gdt+0xf>
    }

    //数据段
    segment_desc_set(KERNEL_SELECTOR_DS, 0x00000000, 0xFFFFFFFF,
   126e0:	68 92 c0 00 00       	push   $0xc092
   126e5:	6a ff                	push   $0xffffffff
   126e7:	6a 00                	push   $0x0
   126e9:	6a 10                	push   $0x10
   126eb:	e8 40 fe ff ff       	call   12530 <segment_desc_set>
   126f0:	83 c4 10             	add    $0x10,%esp
                     SEG_P_PRESENT | SEG_DPL0 | SEG_S_NORMAL | SEG_TYPE_DATA
                     | SEG_TYPE_RW | SEG_D | SEG_G);

    // 只能用非一致代码段，以便通过调用门更改当前任务的CPL执行关键的资源访问操作
    segment_desc_set(KERNEL_SELECTOR_CS, 0x00000000, 0xFFFFFFFF,
   126f3:	68 9a c0 00 00       	push   $0xc09a
   126f8:	6a ff                	push   $0xffffffff
   126fa:	6a 00                	push   $0x0
   126fc:	6a 08                	push   $0x8
   126fe:	e8 2d fe ff ff       	call   12530 <segment_desc_set>
   12703:	83 c4 10             	add    $0x10,%esp
                     SEG_P_PRESENT | SEG_DPL0 | SEG_S_NORMAL | SEG_TYPE_CODE
                     | SEG_TYPE_RW | SEG_D | SEG_G);

    // 调用门
    gate_desc_set((gate_desc_t *)(gdt_table + (SELECTOR_SYSCALL >> 3)),
   12706:	ba f8 02 01 00       	mov    $0x102f8,%edx
   1270b:	b8 f8 49 03 00       	mov    $0x349f8,%eax
   12710:	68 05 ec 00 00       	push   $0xec05
   12715:	52                   	push   %edx
   12716:	6a 08                	push   $0x8
   12718:	50                   	push   %eax
   12719:	e8 98 fe ff ff       	call   125b6 <gate_desc_set>
   1271e:	83 c4 10             	add    $0x10,%esp
            KERNEL_SELECTOR_CS,
            (uint32_t)exception_handler_syscall,
            GATE_P_PRESENT | GATE_DPL3 | GATE_TYPE_SYSCALL | SYSCALL_PARAM_COUNT);

    // 加载gdt
    lgdt((uint32_t)gdt_table, sizeof(gdt_table));
   12721:	b8 e0 49 03 00       	mov    $0x349e0,%eax
   12726:	68 00 08 00 00       	push   $0x800
   1272b:	50                   	push   %eax
   1272c:	e8 bd fd ff ff       	call   124ee <lgdt>
   12731:	83 c4 08             	add    $0x8,%esp
}
   12734:	90                   	nop
   12735:	c9                   	leave  
   12736:	c3                   	ret    

00012737 <switch_to_tss>:

/**
 * 切换至TSS，即跳转实现任务切换
 */
void switch_to_tss (uint32_t tss_selector) {
   12737:	55                   	push   %ebp
   12738:	89 e5                	mov    %esp,%ebp
    far_jump(tss_selector, 0);
   1273a:	6a 00                	push   $0x0
   1273c:	ff 75 08             	pushl  0x8(%ebp)
   1273f:	e8 d2 fd ff ff       	call   12516 <far_jump>
   12744:	83 c4 08             	add    $0x8,%esp
}
   12747:	90                   	nop
   12748:	c9                   	leave  
   12749:	c3                   	ret    

0001274a <cpu_init>:

/**
 * CPU初始化
 */
void cpu_init (void) {
   1274a:	55                   	push   %ebp
   1274b:	89 e5                	mov    %esp,%ebp
   1274d:	83 ec 08             	sub    $0x8,%esp
    mutex_init(&mutex);
   12750:	83 ec 0c             	sub    $0xc,%esp
   12753:	68 e0 51 03 00       	push   $0x351e0
   12758:	e8 de 55 00 00       	call   17d3b <mutex_init>
   1275d:	83 c4 10             	add    $0x10,%esp

    init_gdt();
   12760:	e8 4a ff ff ff       	call   126af <init_gdt>
}
   12765:	90                   	nop
   12766:	c9                   	leave  
   12767:	c3                   	ret    

00012768 <inb>:
static inline uint8_t inb(uint16_t  port) {
   12768:	55                   	push   %ebp
   12769:	89 e5                	mov    %esp,%ebp
   1276b:	83 ec 14             	sub    $0x14,%esp
   1276e:	8b 45 08             	mov    0x8(%ebp),%eax
   12771:	66 89 45 ec          	mov    %ax,-0x14(%ebp)
	__asm__ __volatile__("inb %[p], %[v]" : [v]"=a" (rv) : [p]"d"(port));
   12775:	0f b7 45 ec          	movzwl -0x14(%ebp),%eax
   12779:	89 c2                	mov    %eax,%edx
   1277b:	ec                   	in     (%dx),%al
   1277c:	88 45 ff             	mov    %al,-0x1(%ebp)
	return rv;
   1277f:	0f b6 45 ff          	movzbl -0x1(%ebp),%eax
}
   12783:	c9                   	leave  
   12784:	c3                   	ret    

00012785 <outb>:
static inline void outb(uint16_t port, uint8_t data) {
   12785:	55                   	push   %ebp
   12786:	89 e5                	mov    %esp,%ebp
   12788:	83 ec 08             	sub    $0x8,%esp
   1278b:	8b 55 08             	mov    0x8(%ebp),%edx
   1278e:	8b 45 0c             	mov    0xc(%ebp),%eax
   12791:	66 89 55 fc          	mov    %dx,-0x4(%ebp)
   12795:	88 45 f8             	mov    %al,-0x8(%ebp)
	__asm__ __volatile__("outb %[v], %[p]" : : [p]"d" (port), [v]"a" (data));
   12798:	0f b7 55 fc          	movzwl -0x4(%ebp),%edx
   1279c:	0f b6 45 f8          	movzbl -0x8(%ebp),%eax
   127a0:	ee                   	out    %al,(%dx)
}
   127a1:	90                   	nop
   127a2:	c9                   	leave  
   127a3:	c3                   	ret    

000127a4 <cli>:
static inline void cli() {
   127a4:	55                   	push   %ebp
   127a5:	89 e5                	mov    %esp,%ebp
	__asm__ __volatile__("cli");
   127a7:	fa                   	cli    
}
   127a8:	90                   	nop
   127a9:	5d                   	pop    %ebp
   127aa:	c3                   	ret    

000127ab <sti>:
static inline void sti() {
   127ab:	55                   	push   %ebp
   127ac:	89 e5                	mov    %esp,%ebp
	__asm__ __volatile__("sti");
   127ae:	fb                   	sti    
}
   127af:	90                   	nop
   127b0:	5d                   	pop    %ebp
   127b1:	c3                   	ret    

000127b2 <read_cr2>:
static inline uint32_t read_cr2() {
   127b2:	55                   	push   %ebp
   127b3:	89 e5                	mov    %esp,%ebp
   127b5:	83 ec 10             	sub    $0x10,%esp
	__asm__ __volatile__("mov %%cr2, %[v]":[v]"=r"(cr2));
   127b8:	0f 20 d0             	mov    %cr2,%eax
   127bb:	89 45 fc             	mov    %eax,-0x4(%ebp)
	return cr2;
   127be:	8b 45 fc             	mov    -0x4(%ebp),%eax
}
   127c1:	c9                   	leave  
   127c2:	c3                   	ret    

000127c3 <lidt>:
static inline void lidt(uint32_t start, uint32_t size) {
   127c3:	55                   	push   %ebp
   127c4:	89 e5                	mov    %esp,%ebp
   127c6:	83 ec 10             	sub    $0x10,%esp
	idt.start31_16 = start >> 16;
   127c9:	8b 45 08             	mov    0x8(%ebp),%eax
   127cc:	c1 e8 10             	shr    $0x10,%eax
   127cf:	66 89 45 fe          	mov    %ax,-0x2(%ebp)
	idt.start15_0 = start & 0xFFFF;
   127d3:	8b 45 08             	mov    0x8(%ebp),%eax
   127d6:	66 89 45 fc          	mov    %ax,-0x4(%ebp)
	idt.limit = size - 1;
   127da:	8b 45 0c             	mov    0xc(%ebp),%eax
   127dd:	83 e8 01             	sub    $0x1,%eax
   127e0:	66 89 45 fa          	mov    %ax,-0x6(%ebp)
	__asm__ __volatile__("lidt %0"::"m"(idt));
   127e4:	0f 01 5d fa          	lidtl  -0x6(%ebp)
}
   127e8:	90                   	nop
   127e9:	c9                   	leave  
   127ea:	c3                   	ret    

000127eb <hlt>:
static inline void hlt(void) {
   127eb:	55                   	push   %ebp
   127ec:	89 e5                	mov    %esp,%ebp
    __asm__ __volatile__("hlt");
   127ee:	f4                   	hlt    
}
   127ef:	90                   	nop
   127f0:	5d                   	pop    %ebp
   127f1:	c3                   	ret    

000127f2 <read_eflags>:

static inline uint32_t read_eflags (void) {
   127f2:	55                   	push   %ebp
   127f3:	89 e5                	mov    %esp,%ebp
   127f5:	83 ec 10             	sub    $0x10,%esp
    uint32_t eflags;

    __asm__ __volatile__("pushfl\n\tpopl %%eax":"=a"(eflags));
   127f8:	9c                   	pushf  
   127f9:	58                   	pop    %eax
   127fa:	89 45 fc             	mov    %eax,-0x4(%ebp)
    return eflags;
   127fd:	8b 45 fc             	mov    -0x4(%ebp),%eax
}
   12800:	c9                   	leave  
   12801:	c3                   	ret    

00012802 <write_eflags>:

static inline void write_eflags (uint32_t eflags) {
   12802:	55                   	push   %ebp
   12803:	89 e5                	mov    %esp,%ebp
    __asm__ __volatile__("pushl %%eax\n\tpopfl"::"a"(eflags));
   12805:	8b 45 08             	mov    0x8(%ebp),%eax
   12808:	50                   	push   %eax
   12809:	9d                   	popf   
}
   1280a:	90                   	nop
   1280b:	5d                   	pop    %ebp
   1280c:	c3                   	ret    

0001280d <dump_core_regs>:

#define IDT_TABLE_NR			128				// IDT表项数量

static gate_desc_t idt_table[IDT_TABLE_NR];	// 中断描述表

static void dump_core_regs (exception_frame_t * frame) {
   1280d:	55                   	push   %ebp
   1280e:	89 e5                	mov    %esp,%ebp
   12810:	57                   	push   %edi
   12811:	56                   	push   %esi
   12812:	53                   	push   %ebx
   12813:	83 ec 2c             	sub    $0x2c,%esp
    // 打印CPU寄存器相关内容
    uint32_t esp, ss;
    if (frame->cs & 0x7) {
   12816:	8b 45 08             	mov    0x8(%ebp),%eax
   12819:	8b 40 3c             	mov    0x3c(%eax),%eax
   1281c:	83 e0 07             	and    $0x7,%eax
   1281f:	85 c0                	test   %eax,%eax
   12821:	74 14                	je     12837 <dump_core_regs+0x2a>
        ss = frame->ds;
   12823:	8b 45 08             	mov    0x8(%ebp),%eax
   12826:	8b 40 0c             	mov    0xc(%eax),%eax
   12829:	89 45 e0             	mov    %eax,-0x20(%ebp)
        esp = frame->esp;
   1282c:	8b 45 08             	mov    0x8(%ebp),%eax
   1282f:	8b 40 1c             	mov    0x1c(%eax),%eax
   12832:	89 45 e4             	mov    %eax,-0x1c(%ebp)
   12835:	eb 12                	jmp    12849 <dump_core_regs+0x3c>
    } else {
        ss = frame->ss3;
